
dhrystone.riscv:     file format elf32-littleriscv


Disassembly of section .text:

80000000 <_start>:
80000000:	00000297          	auipc	t0,0x0
80000004:	0dc28293          	addi	t0,t0,220 # 800000dc <trap_entry>
80000008:	30529073          	csrw	mtvec,t0
8000000c:	00000093          	li	ra,0
80000010:	00000113          	li	sp,0
80000014:	00000193          	li	gp,0
80000018:	00000213          	li	tp,0
8000001c:	00000293          	li	t0,0
80000020:	00000313          	li	t1,0
80000024:	00000393          	li	t2,0
80000028:	00000413          	li	s0,0
8000002c:	00000493          	li	s1,0
80000030:	00000513          	li	a0,0
80000034:	00000593          	li	a1,0
80000038:	00000613          	li	a2,0
8000003c:	00000693          	li	a3,0
80000040:	00000713          	li	a4,0
80000044:	00000793          	li	a5,0
80000048:	00000813          	li	a6,0
8000004c:	00000893          	li	a7,0
80000050:	00000913          	li	s2,0
80000054:	00000993          	li	s3,0
80000058:	00000a13          	li	s4,0
8000005c:	00000a93          	li	s5,0
80000060:	00000b13          	li	s6,0
80000064:	00000b93          	li	s7,0
80000068:	00000c13          	li	s8,0
8000006c:	00000c93          	li	s9,0
80000070:	00000d13          	li	s10,0
80000074:	00000d93          	li	s11,0
80000078:	00000e13          	li	t3,0
8000007c:	00000e93          	li	t4,0
80000080:	00000f13          	li	t5,0
80000084:	00000f93          	li	t6,0
80000088:	0001e2b7          	lui	t0,0x1e
8000008c:	3002a073          	csrs	mstatus,t0
80000090:	301022f3          	csrr	t0,misa
80000094:	0002d663          	bgez	t0,800000a0 <_start+0xa0>
80000098:	4d200513          	li	a0,1234
8000009c:	3010006f          	j	80000b9c <tohost_exit>
800000a0:	00005197          	auipc	gp,0x5
800000a4:	9f818193          	addi	gp,gp,-1544 # 80004a98 <_gp>
800000a8:	00007217          	auipc	tp,0x7
800000ac:	42b20213          	addi	tp,tp,1067 # 800074d3 <_end+0x3f>
800000b0:	fc027213          	andi	tp,tp,-64
800000b4:	f1402573          	csrr	a0,mhartid
800000b8:	01151613          	slli	a2,a0,0x11
800000bc:	00c20233          	add	tp,tp,a2
800000c0:	00150113          	addi	sp,a0,1
800000c4:	01111113          	slli	sp,sp,0x11
800000c8:	00410133          	add	sp,sp,tp
800000cc:	090010ef          	jal	ra,8000115c <get_nharts>
800000d0:	00050593          	mv	a1,a0
800000d4:	f1402573          	csrr	a0,mhartid
800000d8:	6790006f          	j	80000f50 <_init>

800000dc <trap_entry>:
800000dc:	ef010113          	addi	sp,sp,-272
800000e0:	00112223          	sw	ra,4(sp)
800000e4:	00212423          	sw	sp,8(sp)
800000e8:	00312623          	sw	gp,12(sp)
800000ec:	00412823          	sw	tp,16(sp)
800000f0:	00512a23          	sw	t0,20(sp)
800000f4:	00612c23          	sw	t1,24(sp)
800000f8:	00712e23          	sw	t2,28(sp)
800000fc:	02812023          	sw	s0,32(sp)
80000100:	02912223          	sw	s1,36(sp)
80000104:	02a12423          	sw	a0,40(sp)
80000108:	02b12623          	sw	a1,44(sp)
8000010c:	02c12823          	sw	a2,48(sp)
80000110:	02d12a23          	sw	a3,52(sp)
80000114:	02e12c23          	sw	a4,56(sp)
80000118:	02f12e23          	sw	a5,60(sp)
8000011c:	05012023          	sw	a6,64(sp)
80000120:	05112223          	sw	a7,68(sp)
80000124:	05212423          	sw	s2,72(sp)
80000128:	05312623          	sw	s3,76(sp)
8000012c:	05412823          	sw	s4,80(sp)
80000130:	05512a23          	sw	s5,84(sp)
80000134:	05612c23          	sw	s6,88(sp)
80000138:	05712e23          	sw	s7,92(sp)
8000013c:	07812023          	sw	s8,96(sp)
80000140:	07912223          	sw	s9,100(sp)
80000144:	07a12423          	sw	s10,104(sp)
80000148:	07b12623          	sw	s11,108(sp)
8000014c:	07c12823          	sw	t3,112(sp)
80000150:	07d12a23          	sw	t4,116(sp)
80000154:	07e12c23          	sw	t5,120(sp)
80000158:	07f12e23          	sw	t6,124(sp)
8000015c:	34202573          	csrr	a0,mcause
80000160:	341025f3          	csrr	a1,mepc
80000164:	00010613          	mv	a2,sp
80000168:	255000ef          	jal	ra,80000bbc <handle_trap>
8000016c:	34151073          	csrw	mepc,a0
80000170:	000022b7          	lui	t0,0x2
80000174:	80028293          	addi	t0,t0,-2048 # 1800 <_tbss_end+0x1800>
80000178:	3002a073          	csrs	mstatus,t0
8000017c:	00412083          	lw	ra,4(sp)
80000180:	00812103          	lw	sp,8(sp)
80000184:	00c12183          	lw	gp,12(sp)
80000188:	01012203          	lw	tp,16(sp)
8000018c:	01412283          	lw	t0,20(sp)
80000190:	01812303          	lw	t1,24(sp)
80000194:	01c12383          	lw	t2,28(sp)
80000198:	02012403          	lw	s0,32(sp)
8000019c:	02412483          	lw	s1,36(sp)
800001a0:	02812503          	lw	a0,40(sp)
800001a4:	02c12583          	lw	a1,44(sp)
800001a8:	03012603          	lw	a2,48(sp)
800001ac:	03412683          	lw	a3,52(sp)
800001b0:	03812703          	lw	a4,56(sp)
800001b4:	03c12783          	lw	a5,60(sp)
800001b8:	04012803          	lw	a6,64(sp)
800001bc:	04412883          	lw	a7,68(sp)
800001c0:	04812903          	lw	s2,72(sp)
800001c4:	04c12983          	lw	s3,76(sp)
800001c8:	05012a03          	lw	s4,80(sp)
800001cc:	05412a83          	lw	s5,84(sp)
800001d0:	05812b03          	lw	s6,88(sp)
800001d4:	05c12b83          	lw	s7,92(sp)
800001d8:	06012c03          	lw	s8,96(sp)
800001dc:	06412c83          	lw	s9,100(sp)
800001e0:	06812d03          	lw	s10,104(sp)
800001e4:	06c12d83          	lw	s11,108(sp)
800001e8:	07012e03          	lw	t3,112(sp)
800001ec:	07412e83          	lw	t4,116(sp)
800001f0:	07812f03          	lw	t5,120(sp)
800001f4:	07c12f83          	lw	t6,124(sp)
800001f8:	11010113          	addi	sp,sp,272
800001fc:	30200073          	mret

80000200 <Proc_2>:
80000200:	00005717          	auipc	a4,0x5
80000204:	aa174703          	lbu	a4,-1375(a4) # 80004ca1 <Ch_1_Glob>
80000208:	04100793          	li	a5,65
8000020c:	00f70463          	beq	a4,a5,80000214 <Proc_2+0x14>
80000210:	00008067          	ret
80000214:	00052783          	lw	a5,0(a0)
80000218:	00005717          	auipc	a4,0x5
8000021c:	a9070713          	addi	a4,a4,-1392 # 80004ca8 <Int_Glob>
80000220:	00072703          	lw	a4,0(a4)
80000224:	00978793          	addi	a5,a5,9
80000228:	40e787b3          	sub	a5,a5,a4
8000022c:	00f52023          	sw	a5,0(a0)
80000230:	00008067          	ret

80000234 <Proc_3>:
80000234:	00005797          	auipc	a5,0x5
80000238:	a7c78793          	addi	a5,a5,-1412 # 80004cb0 <Ptr_Glob>
8000023c:	0007a603          	lw	a2,0(a5)
80000240:	00060863          	beqz	a2,80000250 <Proc_3+0x1c>
80000244:	00062703          	lw	a4,0(a2)
80000248:	00e52023          	sw	a4,0(a0)
8000024c:	0007a603          	lw	a2,0(a5)
80000250:	00005797          	auipc	a5,0x5
80000254:	a5878793          	addi	a5,a5,-1448 # 80004ca8 <Int_Glob>
80000258:	0007a583          	lw	a1,0(a5)
8000025c:	00c60613          	addi	a2,a2,12
80000260:	00a00513          	li	a0,10
80000264:	1b40006f          	j	80000418 <Proc_7>

80000268 <Proc_1>:
80000268:	ff010113          	addi	sp,sp,-16
8000026c:	01212023          	sw	s2,0(sp)
80000270:	00005917          	auipc	s2,0x5
80000274:	a4090913          	addi	s2,s2,-1472 # 80004cb0 <Ptr_Glob>
80000278:	00092783          	lw	a5,0(s2)
8000027c:	00812423          	sw	s0,8(sp)
80000280:	00052403          	lw	s0,0(a0)
80000284:	0007a703          	lw	a4,0(a5)
80000288:	00912223          	sw	s1,4(sp)
8000028c:	0047ae83          	lw	t4,4(a5)
80000290:	0087ae03          	lw	t3,8(a5)
80000294:	0107a303          	lw	t1,16(a5)
80000298:	0147a883          	lw	a7,20(a5)
8000029c:	0187a803          	lw	a6,24(a5)
800002a0:	0207a583          	lw	a1,32(a5)
800002a4:	0247a603          	lw	a2,36(a5)
800002a8:	0287a683          	lw	a3,40(a5)
800002ac:	00112623          	sw	ra,12(sp)
800002b0:	00050493          	mv	s1,a0
800002b4:	01c7a503          	lw	a0,28(a5)
800002b8:	02c7a783          	lw	a5,44(a5)
800002bc:	00e42023          	sw	a4,0(s0)
800002c0:	0004a703          	lw	a4,0(s1)
800002c4:	00a42e23          	sw	a0,28(s0)
800002c8:	02f42623          	sw	a5,44(s0)
800002cc:	01d42223          	sw	t4,4(s0)
800002d0:	00500793          	li	a5,5
800002d4:	01c42423          	sw	t3,8(s0)
800002d8:	00642823          	sw	t1,16(s0)
800002dc:	01142a23          	sw	a7,20(s0)
800002e0:	01042c23          	sw	a6,24(s0)
800002e4:	02b42023          	sw	a1,32(s0)
800002e8:	02c42223          	sw	a2,36(s0)
800002ec:	02d42423          	sw	a3,40(s0)
800002f0:	00f4a623          	sw	a5,12(s1)
800002f4:	00f42623          	sw	a5,12(s0)
800002f8:	00e42023          	sw	a4,0(s0)
800002fc:	00040513          	mv	a0,s0
80000300:	f35ff0ef          	jal	ra,80000234 <Proc_3>
80000304:	00442783          	lw	a5,4(s0)
80000308:	08078063          	beqz	a5,80000388 <Proc_1+0x120>
8000030c:	0004a783          	lw	a5,0(s1)
80000310:	00c12083          	lw	ra,12(sp)
80000314:	00812403          	lw	s0,8(sp)
80000318:	0007af83          	lw	t6,0(a5)
8000031c:	0047af03          	lw	t5,4(a5)
80000320:	0087ae83          	lw	t4,8(a5)
80000324:	00c7ae03          	lw	t3,12(a5)
80000328:	0107a303          	lw	t1,16(a5)
8000032c:	0147a883          	lw	a7,20(a5)
80000330:	0187a803          	lw	a6,24(a5)
80000334:	01c7a583          	lw	a1,28(a5)
80000338:	0207a603          	lw	a2,32(a5)
8000033c:	0247a683          	lw	a3,36(a5)
80000340:	0287a703          	lw	a4,40(a5)
80000344:	02c7a783          	lw	a5,44(a5)
80000348:	01f4a023          	sw	t6,0(s1)
8000034c:	01e4a223          	sw	t5,4(s1)
80000350:	01d4a423          	sw	t4,8(s1)
80000354:	01c4a623          	sw	t3,12(s1)
80000358:	0064a823          	sw	t1,16(s1)
8000035c:	0114aa23          	sw	a7,20(s1)
80000360:	0104ac23          	sw	a6,24(s1)
80000364:	00b4ae23          	sw	a1,28(s1)
80000368:	02c4a023          	sw	a2,32(s1)
8000036c:	02d4a223          	sw	a3,36(s1)
80000370:	02e4a423          	sw	a4,40(s1)
80000374:	02f4a623          	sw	a5,44(s1)
80000378:	00012903          	lw	s2,0(sp)
8000037c:	00412483          	lw	s1,4(sp)
80000380:	01010113          	addi	sp,sp,16
80000384:	00008067          	ret
80000388:	0084a503          	lw	a0,8(s1)
8000038c:	00600793          	li	a5,6
80000390:	00840593          	addi	a1,s0,8
80000394:	00f42623          	sw	a5,12(s0)
80000398:	198000ef          	jal	ra,80000530 <Proc_6>
8000039c:	00092783          	lw	a5,0(s2)
800003a0:	00c42503          	lw	a0,12(s0)
800003a4:	00c40613          	addi	a2,s0,12
800003a8:	0007a783          	lw	a5,0(a5)
800003ac:	00c12083          	lw	ra,12(sp)
800003b0:	00412483          	lw	s1,4(sp)
800003b4:	00f42023          	sw	a5,0(s0)
800003b8:	00812403          	lw	s0,8(sp)
800003bc:	00012903          	lw	s2,0(sp)
800003c0:	00a00593          	li	a1,10
800003c4:	01010113          	addi	sp,sp,16
800003c8:	0500006f          	j	80000418 <Proc_7>

800003cc <Proc_4>:
800003cc:	00005717          	auipc	a4,0x5
800003d0:	8d870713          	addi	a4,a4,-1832 # 80004ca4 <Bool_Glob>
800003d4:	00072683          	lw	a3,0(a4)
800003d8:	00005797          	auipc	a5,0x5
800003dc:	8c97c783          	lbu	a5,-1847(a5) # 80004ca1 <Ch_1_Glob>
800003e0:	fbf78793          	addi	a5,a5,-65
800003e4:	0017b793          	seqz	a5,a5
800003e8:	00d7e7b3          	or	a5,a5,a3
800003ec:	00f72023          	sw	a5,0(a4)
800003f0:	04200793          	li	a5,66
800003f4:	00005717          	auipc	a4,0x5
800003f8:	8af70623          	sb	a5,-1876(a4) # 80004ca0 <Ch_2_Glob>
800003fc:	00008067          	ret

80000400 <Proc_5>:
80000400:	04100793          	li	a5,65
80000404:	00005717          	auipc	a4,0x5
80000408:	88f70ea3          	sb	a5,-1891(a4) # 80004ca1 <Ch_1_Glob>
8000040c:	00005797          	auipc	a5,0x5
80000410:	8807ac23          	sw	zero,-1896(a5) # 80004ca4 <Bool_Glob>
80000414:	00008067          	ret

80000418 <Proc_7>:
80000418:	00250513          	addi	a0,a0,2
8000041c:	00b505b3          	add	a1,a0,a1
80000420:	00b62023          	sw	a1,0(a2)
80000424:	00008067          	ret

80000428 <Proc_8>:
80000428:	00560713          	addi	a4,a2,5
8000042c:	00171793          	slli	a5,a4,0x1
80000430:	00e787b3          	add	a5,a5,a4
80000434:	00379793          	slli	a5,a5,0x3
80000438:	00e787b3          	add	a5,a5,a4
8000043c:	00379793          	slli	a5,a5,0x3
80000440:	00261613          	slli	a2,a2,0x2
80000444:	00271813          	slli	a6,a4,0x2
80000448:	01050533          	add	a0,a0,a6
8000044c:	00c78833          	add	a6,a5,a2
80000450:	00d52023          	sw	a3,0(a0)
80000454:	00d52223          	sw	a3,4(a0)
80000458:	06e52c23          	sw	a4,120(a0)
8000045c:	010586b3          	add	a3,a1,a6
80000460:	0106a803          	lw	a6,16(a3)
80000464:	00e6aa23          	sw	a4,20(a3)
80000468:	00e6ac23          	sw	a4,24(a3)
8000046c:	00180713          	addi	a4,a6,1
80000470:	00e6a823          	sw	a4,16(a3)
80000474:	00052703          	lw	a4,0(a0)
80000478:	00f585b3          	add	a1,a1,a5
8000047c:	00c585b3          	add	a1,a1,a2
80000480:	000017b7          	lui	a5,0x1
80000484:	00b785b3          	add	a1,a5,a1
80000488:	00500793          	li	a5,5
8000048c:	fae5aa23          	sw	a4,-76(a1)
80000490:	00005717          	auipc	a4,0x5
80000494:	80f72c23          	sw	a5,-2024(a4) # 80004ca8 <Int_Glob>
80000498:	00008067          	ret

8000049c <Func_1>:
8000049c:	0ff57513          	andi	a0,a0,255
800004a0:	0ff5f593          	andi	a1,a1,255
800004a4:	00b50663          	beq	a0,a1,800004b0 <Func_1+0x14>
800004a8:	00000513          	li	a0,0
800004ac:	00008067          	ret
800004b0:	00004797          	auipc	a5,0x4
800004b4:	7ea788a3          	sb	a0,2033(a5) # 80004ca1 <Ch_1_Glob>
800004b8:	00100513          	li	a0,1
800004bc:	00008067          	ret

800004c0 <Func_2>:
800004c0:	ff010113          	addi	sp,sp,-16
800004c4:	00812423          	sw	s0,8(sp)
800004c8:	00912223          	sw	s1,4(sp)
800004cc:	00112623          	sw	ra,12(sp)
800004d0:	00050413          	mv	s0,a0
800004d4:	00058493          	mv	s1,a1
800004d8:	0034c583          	lbu	a1,3(s1)
800004dc:	00244503          	lbu	a0,2(s0)
800004e0:	fbdff0ef          	jal	ra,8000049c <Func_1>
800004e4:	fe051ae3          	bnez	a0,800004d8 <Func_2+0x18>
800004e8:	00048593          	mv	a1,s1
800004ec:	00040513          	mv	a0,s0
800004f0:	3a1000ef          	jal	ra,80001090 <strcmp>
800004f4:	00000793          	li	a5,0
800004f8:	00a05a63          	blez	a0,8000050c <Func_2+0x4c>
800004fc:	00a00793          	li	a5,10
80000500:	00004717          	auipc	a4,0x4
80000504:	7af72423          	sw	a5,1960(a4) # 80004ca8 <Int_Glob>
80000508:	00100793          	li	a5,1
8000050c:	00c12083          	lw	ra,12(sp)
80000510:	00812403          	lw	s0,8(sp)
80000514:	00412483          	lw	s1,4(sp)
80000518:	00078513          	mv	a0,a5
8000051c:	01010113          	addi	sp,sp,16
80000520:	00008067          	ret

80000524 <Func_3>:
80000524:	ffe50513          	addi	a0,a0,-2
80000528:	00153513          	seqz	a0,a0
8000052c:	00008067          	ret

80000530 <Proc_6>:
80000530:	ff010113          	addi	sp,sp,-16
80000534:	00812423          	sw	s0,8(sp)
80000538:	00912223          	sw	s1,4(sp)
8000053c:	00112623          	sw	ra,12(sp)
80000540:	00050413          	mv	s0,a0
80000544:	00058493          	mv	s1,a1
80000548:	fddff0ef          	jal	ra,80000524 <Func_3>
8000054c:	02050e63          	beqz	a0,80000588 <Proc_6+0x58>
80000550:	0084a023          	sw	s0,0(s1)
80000554:	00100713          	li	a4,1
80000558:	04e40063          	beq	s0,a4,80000598 <Proc_6+0x68>
8000055c:	04040863          	beqz	s0,800005ac <Proc_6+0x7c>
80000560:	00200793          	li	a5,2
80000564:	06f40063          	beq	s0,a5,800005c4 <Proc_6+0x94>
80000568:	00400713          	li	a4,4
8000056c:	00e41463          	bne	s0,a4,80000574 <Proc_6+0x44>
80000570:	00f4a023          	sw	a5,0(s1)
80000574:	00c12083          	lw	ra,12(sp)
80000578:	00812403          	lw	s0,8(sp)
8000057c:	00412483          	lw	s1,4(sp)
80000580:	01010113          	addi	sp,sp,16
80000584:	00008067          	ret
80000588:	00300793          	li	a5,3
8000058c:	00f4a023          	sw	a5,0(s1)
80000590:	00100713          	li	a4,1
80000594:	fce414e3          	bne	s0,a4,8000055c <Proc_6+0x2c>
80000598:	00004797          	auipc	a5,0x4
8000059c:	71078793          	addi	a5,a5,1808 # 80004ca8 <Int_Glob>
800005a0:	0007a703          	lw	a4,0(a5)
800005a4:	06400793          	li	a5,100
800005a8:	02e7da63          	bge	a5,a4,800005dc <Proc_6+0xac>
800005ac:	00c12083          	lw	ra,12(sp)
800005b0:	00812403          	lw	s0,8(sp)
800005b4:	0004a023          	sw	zero,0(s1)
800005b8:	00412483          	lw	s1,4(sp)
800005bc:	01010113          	addi	sp,sp,16
800005c0:	00008067          	ret
800005c4:	00c12083          	lw	ra,12(sp)
800005c8:	00812403          	lw	s0,8(sp)
800005cc:	00e4a023          	sw	a4,0(s1)
800005d0:	00412483          	lw	s1,4(sp)
800005d4:	01010113          	addi	sp,sp,16
800005d8:	00008067          	ret
800005dc:	00300793          	li	a5,3
800005e0:	00f4a023          	sw	a5,0(s1)
800005e4:	f91ff06f          	j	80000574 <Proc_6+0x44>

800005e8 <debug_printf>:
800005e8:	fe010113          	addi	sp,sp,-32
800005ec:	00b12223          	sw	a1,4(sp)
800005f0:	00c12423          	sw	a2,8(sp)
800005f4:	00d12623          	sw	a3,12(sp)
800005f8:	00e12823          	sw	a4,16(sp)
800005fc:	00f12a23          	sw	a5,20(sp)
80000600:	01012c23          	sw	a6,24(sp)
80000604:	01112e23          	sw	a7,28(sp)
80000608:	02010113          	addi	sp,sp,32
8000060c:	00008067          	ret

80000610 <putchar>:
80000610:	ff010113          	addi	sp,sp,-16
80000614:	00812423          	sw	s0,8(sp)
80000618:	00112623          	sw	ra,12(sp)
8000061c:	00a00793          	li	a5,10
80000620:	00050413          	mv	s0,a0
80000624:	02f50063          	beq	a0,a5,80000644 <putchar+0x34>
80000628:	ff0007b7          	lui	a5,0xff000
8000062c:	0087a023          	sw	s0,0(a5) # ff000000 <_end+0x7eff8b6c>
80000630:	00c12083          	lw	ra,12(sp)
80000634:	00812403          	lw	s0,8(sp)
80000638:	00000513          	li	a0,0
8000063c:	01010113          	addi	sp,sp,16
80000640:	00008067          	ret
80000644:	00d00513          	li	a0,13
80000648:	fc9ff0ef          	jal	ra,80000610 <putchar>
8000064c:	ff0007b7          	lui	a5,0xff000
80000650:	0087a023          	sw	s0,0(a5) # ff000000 <_end+0x7eff8b6c>
80000654:	00c12083          	lw	ra,12(sp)
80000658:	00812403          	lw	s0,8(sp)
8000065c:	00000513          	li	a0,0
80000660:	01010113          	addi	sp,sp,16
80000664:	00008067          	ret

80000668 <vprintfmt>:
80000668:	eb010113          	addi	sp,sp,-336
8000066c:	13a12023          	sw	s10,288(sp)
80000670:	40000d37          	lui	s10,0x40000
80000674:	fffd0793          	addi	a5,s10,-1 # 3fffffff <_tbss_end+0x3fffffff>
80000678:	14812423          	sw	s0,328(sp)
8000067c:	14912223          	sw	s1,324(sp)
80000680:	15212023          	sw	s2,320(sp)
80000684:	14112623          	sw	ra,332(sp)
80000688:	13312e23          	sw	s3,316(sp)
8000068c:	13412c23          	sw	s4,312(sp)
80000690:	13512a23          	sw	s5,308(sp)
80000694:	13612823          	sw	s6,304(sp)
80000698:	13712623          	sw	s7,300(sp)
8000069c:	13812423          	sw	s8,296(sp)
800006a0:	13912223          	sw	s9,292(sp)
800006a4:	11b12e23          	sw	s11,284(sp)
800006a8:	00050913          	mv	s2,a0
800006ac:	00058493          	mv	s1,a1
800006b0:	00060413          	mv	s0,a2
800006b4:	00d12423          	sw	a3,8(sp)
800006b8:	00f12623          	sw	a5,12(sp)
800006bc:	00044503          	lbu	a0,0(s0)
800006c0:	02500793          	li	a5,37
800006c4:	02f50463          	beq	a0,a5,800006ec <vprintfmt+0x84>
800006c8:	06050a63          	beqz	a0,8000073c <vprintfmt+0xd4>
800006cc:	02500993          	li	s3,37
800006d0:	0080006f          	j	800006d8 <vprintfmt+0x70>
800006d4:	06050463          	beqz	a0,8000073c <vprintfmt+0xd4>
800006d8:	00048593          	mv	a1,s1
800006dc:	00140413          	addi	s0,s0,1
800006e0:	000900e7          	jalr	s2
800006e4:	00044503          	lbu	a0,0(s0)
800006e8:	ff3516e3          	bne	a0,s3,800006d4 <vprintfmt+0x6c>
800006ec:	00144683          	lbu	a3,1(s0)
800006f0:	00140a93          	addi	s5,s0,1
800006f4:	000a8713          	mv	a4,s5
800006f8:	02000b13          	li	s6,32
800006fc:	fff00993          	li	s3,-1
80000700:	fff00a13          	li	s4,-1
80000704:	00000593          	li	a1,0
80000708:	05500513          	li	a0,85
8000070c:	00900813          	li	a6,9
80000710:	fdd68793          	addi	a5,a3,-35
80000714:	0ff7f793          	andi	a5,a5,255
80000718:	00170413          	addi	s0,a4,1
8000071c:	36f56663          	bltu	a0,a5,80000a88 <vprintfmt+0x420>
80000720:	00004617          	auipc	a2,0x4
80000724:	16460613          	addi	a2,a2,356 # 80004884 <_GLOBAL_OFFSET_TABLE_+0x5fc>
80000728:	00279793          	slli	a5,a5,0x2
8000072c:	00c787b3          	add	a5,a5,a2
80000730:	0007a783          	lw	a5,0(a5)
80000734:	00c787b3          	add	a5,a5,a2
80000738:	00078067          	jr	a5
8000073c:	14c12083          	lw	ra,332(sp)
80000740:	14812403          	lw	s0,328(sp)
80000744:	14412483          	lw	s1,324(sp)
80000748:	14012903          	lw	s2,320(sp)
8000074c:	13c12983          	lw	s3,316(sp)
80000750:	13812a03          	lw	s4,312(sp)
80000754:	13412a83          	lw	s5,308(sp)
80000758:	13012b03          	lw	s6,304(sp)
8000075c:	12c12b83          	lw	s7,300(sp)
80000760:	12812c03          	lw	s8,296(sp)
80000764:	12412c83          	lw	s9,292(sp)
80000768:	12012d03          	lw	s10,288(sp)
8000076c:	11c12d83          	lw	s11,284(sp)
80000770:	15010113          	addi	sp,sp,336
80000774:	00008067          	ret
80000778:	00800a93          	li	s5,8
8000077c:	00012223          	sw	zero,4(sp)
80000780:	00100793          	li	a5,1
80000784:	24b7c863          	blt	a5,a1,800009d4 <vprintfmt+0x36c>
80000788:	00812783          	lw	a5,8(sp)
8000078c:	00478693          	addi	a3,a5,4
80000790:	00812783          	lw	a5,8(sp)
80000794:	00000d93          	li	s11,0
80000798:	0007ab83          	lw	s7,0(a5)
8000079c:	00d12423          	sw	a3,8(sp)
800007a0:	000a8613          	mv	a2,s5
800007a4:	00000693          	li	a3,0
800007a8:	000b8513          	mv	a0,s7
800007ac:	000d8593          	mv	a1,s11
800007b0:	19d010ef          	jal	ra,8000214c <__umoddi3>
800007b4:	00a12823          	sw	a0,16(sp)
800007b8:	00000793          	li	a5,0
800007bc:	00050d13          	mv	s10,a0
800007c0:	2fb78c63          	beq	a5,s11,80000ab8 <vprintfmt+0x450>
800007c4:	01410c13          	addi	s8,sp,20
800007c8:	00100993          	li	s3,1
800007cc:	000a8613          	mv	a2,s5
800007d0:	00000693          	li	a3,0
800007d4:	000b8513          	mv	a0,s7
800007d8:	000d8593          	mv	a1,s11
800007dc:	338010ef          	jal	ra,80001b14 <__udivdi3>
800007e0:	000a8613          	mv	a2,s5
800007e4:	00000693          	li	a3,0
800007e8:	00050b93          	mv	s7,a0
800007ec:	00058d93          	mv	s11,a1
800007f0:	15d010ef          	jal	ra,8000214c <__umoddi3>
800007f4:	00412783          	lw	a5,4(sp)
800007f8:	00ac2023          	sw	a0,0(s8)
800007fc:	00050d13          	mv	s10,a0
80000800:	00198c93          	addi	s9,s3,1
80000804:	004c0c13          	addi	s8,s8,4
80000808:	01b78663          	beq	a5,s11,80000814 <vprintfmt+0x1ac>
8000080c:	000c8993          	mv	s3,s9
80000810:	fbdff06f          	j	800007cc <vprintfmt+0x164>
80000814:	ff5bfce3          	bgeu	s7,s5,8000080c <vprintfmt+0x1a4>
80000818:	014cdc63          	bge	s9,s4,80000830 <vprintfmt+0x1c8>
8000081c:	fffa0a13          	addi	s4,s4,-1
80000820:	00048593          	mv	a1,s1
80000824:	000b0513          	mv	a0,s6
80000828:	000900e7          	jalr	s2
8000082c:	ff4cc8e3          	blt	s9,s4,8000081c <vprintfmt+0x1b4>
80000830:	00c12783          	lw	a5,12(sp)
80000834:	00900a13          	li	s4,9
80000838:	00f989b3          	add	s3,s3,a5
8000083c:	00299993          	slli	s3,s3,0x2
80000840:	01010793          	addi	a5,sp,16
80000844:	013789b3          	add	s3,a5,s3
80000848:	00c0006f          	j	80000854 <vprintfmt+0x1ec>
8000084c:	0009ad03          	lw	s10,0(s3)
80000850:	ffc98993          	addi	s3,s3,-4
80000854:	05700513          	li	a0,87
80000858:	01aa6463          	bltu	s4,s10,80000860 <vprintfmt+0x1f8>
8000085c:	03000513          	li	a0,48
80000860:	00048593          	mv	a1,s1
80000864:	01a50533          	add	a0,a0,s10
80000868:	000900e7          	jalr	s2
8000086c:	00c10793          	addi	a5,sp,12
80000870:	fd379ee3          	bne	a5,s3,8000084c <vprintfmt+0x1e4>
80000874:	e49ff06f          	j	800006bc <vprintfmt+0x54>
80000878:	03000513          	li	a0,48
8000087c:	00048593          	mv	a1,s1
80000880:	000900e7          	jalr	s2
80000884:	00048593          	mv	a1,s1
80000888:	07800513          	li	a0,120
8000088c:	000900e7          	jalr	s2
80000890:	00812783          	lw	a5,8(sp)
80000894:	01000a93          	li	s5,16
80000898:	00012223          	sw	zero,4(sp)
8000089c:	00478693          	addi	a3,a5,4
800008a0:	ef1ff06f          	j	80000790 <vprintfmt+0x128>
800008a4:	00812783          	lw	a5,8(sp)
800008a8:	00174683          	lbu	a3,1(a4)
800008ac:	00040713          	mv	a4,s0
800008b0:	0007a983          	lw	s3,0(a5)
800008b4:	00478793          	addi	a5,a5,4
800008b8:	00f12423          	sw	a5,8(sp)
800008bc:	e40a5ae3          	bgez	s4,80000710 <vprintfmt+0xa8>
800008c0:	00098a13          	mv	s4,s3
800008c4:	fff00993          	li	s3,-1
800008c8:	e49ff06f          	j	80000710 <vprintfmt+0xa8>
800008cc:	00174683          	lbu	a3,1(a4)
800008d0:	02d00b13          	li	s6,45
800008d4:	00040713          	mv	a4,s0
800008d8:	e39ff06f          	j	80000710 <vprintfmt+0xa8>
800008dc:	fffa4793          	not	a5,s4
800008e0:	41f7d793          	srai	a5,a5,0x1f
800008e4:	00174683          	lbu	a3,1(a4)
800008e8:	00fa7a33          	and	s4,s4,a5
800008ec:	00040713          	mv	a4,s0
800008f0:	e21ff06f          	j	80000710 <vprintfmt+0xa8>
800008f4:	00174683          	lbu	a3,1(a4)
800008f8:	03000b13          	li	s6,48
800008fc:	00040713          	mv	a4,s0
80000900:	e11ff06f          	j	80000710 <vprintfmt+0xa8>
80000904:	00174603          	lbu	a2,1(a4)
80000908:	fd068993          	addi	s3,a3,-48
8000090c:	00040713          	mv	a4,s0
80000910:	fd060793          	addi	a5,a2,-48
80000914:	00060693          	mv	a3,a2
80000918:	faf862e3          	bltu	a6,a5,800008bc <vprintfmt+0x254>
8000091c:	00299793          	slli	a5,s3,0x2
80000920:	013789b3          	add	s3,a5,s3
80000924:	00170713          	addi	a4,a4,1
80000928:	00199993          	slli	s3,s3,0x1
8000092c:	00c989b3          	add	s3,s3,a2
80000930:	00074603          	lbu	a2,0(a4)
80000934:	fd098993          	addi	s3,s3,-48
80000938:	fd060793          	addi	a5,a2,-48
8000093c:	00060693          	mv	a3,a2
80000940:	fcf87ee3          	bgeu	a6,a5,8000091c <vprintfmt+0x2b4>
80000944:	f79ff06f          	j	800008bc <vprintfmt+0x254>
80000948:	00812783          	lw	a5,8(sp)
8000094c:	00048593          	mv	a1,s1
80000950:	0007a503          	lw	a0,0(a5)
80000954:	00478c93          	addi	s9,a5,4
80000958:	000900e7          	jalr	s2
8000095c:	01912423          	sw	s9,8(sp)
80000960:	d5dff06f          	j	800006bc <vprintfmt+0x54>
80000964:	00100793          	li	a5,1
80000968:	16b7c463          	blt	a5,a1,80000ad0 <vprintfmt+0x468>
8000096c:	00812703          	lw	a4,8(sp)
80000970:	00470793          	addi	a5,a4,4
80000974:	16058e63          	beqz	a1,80000af0 <vprintfmt+0x488>
80000978:	00072b83          	lw	s7,0(a4)
8000097c:	00f12423          	sw	a5,8(sp)
80000980:	41fbdd93          	srai	s11,s7,0x1f
80000984:	020dd263          	bgez	s11,800009a8 <vprintfmt+0x340>
80000988:	00048593          	mv	a1,s1
8000098c:	02d00513          	li	a0,45
80000990:	000900e7          	jalr	s2
80000994:	41700733          	neg	a4,s7
80000998:	00e036b3          	snez	a3,a4
8000099c:	41b007b3          	neg	a5,s11
800009a0:	00070b93          	mv	s7,a4
800009a4:	40d78db3          	sub	s11,a5,a3
800009a8:	00a00a93          	li	s5,10
800009ac:	00012223          	sw	zero,4(sp)
800009b0:	df1ff06f          	j	800007a0 <vprintfmt+0x138>
800009b4:	00174683          	lbu	a3,1(a4)
800009b8:	00158593          	addi	a1,a1,1
800009bc:	00040713          	mv	a4,s0
800009c0:	d51ff06f          	j	80000710 <vprintfmt+0xa8>
800009c4:	00012223          	sw	zero,4(sp)
800009c8:	00100793          	li	a5,1
800009cc:	00a00a93          	li	s5,10
800009d0:	dab7dce3          	bge	a5,a1,80000788 <vprintfmt+0x120>
800009d4:	00812783          	lw	a5,8(sp)
800009d8:	00778793          	addi	a5,a5,7
800009dc:	ff87f793          	andi	a5,a5,-8
800009e0:	00878713          	addi	a4,a5,8
800009e4:	00e12423          	sw	a4,8(sp)
800009e8:	0007ab83          	lw	s7,0(a5)
800009ec:	0047ad83          	lw	s11,4(a5)
800009f0:	db1ff06f          	j	800007a0 <vprintfmt+0x138>
800009f4:	01000a93          	li	s5,16
800009f8:	00012223          	sw	zero,4(sp)
800009fc:	d85ff06f          	j	80000780 <vprintfmt+0x118>
80000a00:	00174683          	lbu	a3,1(a4)
80000a04:	00040713          	mv	a4,s0
80000a08:	d09ff06f          	j	80000710 <vprintfmt+0xa8>
80000a0c:	00048593          	mv	a1,s1
80000a10:	02500513          	li	a0,37
80000a14:	000900e7          	jalr	s2
80000a18:	ca5ff06f          	j	800006bc <vprintfmt+0x54>
80000a1c:	00812783          	lw	a5,8(sp)
80000a20:	0007aa83          	lw	s5,0(a5)
80000a24:	00478c93          	addi	s9,a5,4
80000a28:	0c0a8863          	beqz	s5,80000af8 <vprintfmt+0x490>
80000a2c:	07405e63          	blez	s4,80000aa8 <vprintfmt+0x440>
80000a30:	02d00793          	li	a5,45
80000a34:	0efb1663          	bne	s6,a5,80000b20 <vprintfmt+0x4b8>
80000a38:	000ac503          	lbu	a0,0(s5)
80000a3c:	02050863          	beqz	a0,80000a6c <vprintfmt+0x404>
80000a40:	fff00b13          	li	s6,-1
80000a44:	0009c663          	bltz	s3,80000a50 <vprintfmt+0x3e8>
80000a48:	fff98993          	addi	s3,s3,-1
80000a4c:	01698e63          	beq	s3,s6,80000a68 <vprintfmt+0x400>
80000a50:	00048593          	mv	a1,s1
80000a54:	001a8a93          	addi	s5,s5,1
80000a58:	000900e7          	jalr	s2
80000a5c:	000ac503          	lbu	a0,0(s5)
80000a60:	fffa0a13          	addi	s4,s4,-1
80000a64:	fe0510e3          	bnez	a0,80000a44 <vprintfmt+0x3dc>
80000a68:	01405c63          	blez	s4,80000a80 <vprintfmt+0x418>
80000a6c:	fffa0a13          	addi	s4,s4,-1
80000a70:	00048593          	mv	a1,s1
80000a74:	02000513          	li	a0,32
80000a78:	000900e7          	jalr	s2
80000a7c:	fe0a18e3          	bnez	s4,80000a6c <vprintfmt+0x404>
80000a80:	01912423          	sw	s9,8(sp)
80000a84:	c39ff06f          	j	800006bc <vprintfmt+0x54>
80000a88:	00048593          	mv	a1,s1
80000a8c:	02500513          	li	a0,37
80000a90:	000900e7          	jalr	s2
80000a94:	000a8413          	mv	s0,s5
80000a98:	c25ff06f          	j	800006bc <vprintfmt+0x54>
80000a9c:	415686b3          	sub	a3,a3,s5
80000aa0:	40da0a33          	sub	s4,s4,a3
80000aa4:	0b404a63          	bgtz	s4,80000b58 <vprintfmt+0x4f0>
80000aa8:	000ac503          	lbu	a0,0(s5)
80000aac:	fc050ae3          	beqz	a0,80000a80 <vprintfmt+0x418>
80000ab0:	fff00b13          	li	s6,-1
80000ab4:	f91ff06f          	j	80000a44 <vprintfmt+0x3dc>
80000ab8:	d15bf6e3          	bgeu	s7,s5,800007c4 <vprintfmt+0x15c>
80000abc:	00100793          	li	a5,1
80000ac0:	00000993          	li	s3,0
80000ac4:	00100c93          	li	s9,1
80000ac8:	d547cae3          	blt	a5,s4,8000081c <vprintfmt+0x1b4>
80000acc:	d65ff06f          	j	80000830 <vprintfmt+0x1c8>
80000ad0:	00812783          	lw	a5,8(sp)
80000ad4:	00778793          	addi	a5,a5,7
80000ad8:	ff87f793          	andi	a5,a5,-8
80000adc:	00878713          	addi	a4,a5,8
80000ae0:	00e12423          	sw	a4,8(sp)
80000ae4:	0007ab83          	lw	s7,0(a5)
80000ae8:	0047ad83          	lw	s11,4(a5)
80000aec:	e99ff06f          	j	80000984 <vprintfmt+0x31c>
80000af0:	00812703          	lw	a4,8(sp)
80000af4:	e85ff06f          	j	80000978 <vprintfmt+0x310>
80000af8:	01405663          	blez	s4,80000b04 <vprintfmt+0x49c>
80000afc:	02d00793          	li	a5,45
80000b00:	00fb1c63          	bne	s6,a5,80000b18 <vprintfmt+0x4b0>
80000b04:	00004a97          	auipc	s5,0x4
80000b08:	d44a8a93          	addi	s5,s5,-700 # 80004848 <_GLOBAL_OFFSET_TABLE_+0x5c0>
80000b0c:	02800513          	li	a0,40
80000b10:	fff00b13          	li	s6,-1
80000b14:	f31ff06f          	j	80000a44 <vprintfmt+0x3dc>
80000b18:	00004a97          	auipc	s5,0x4
80000b1c:	d30a8a93          	addi	s5,s5,-720 # 80004848 <_GLOBAL_OFFSET_TABLE_+0x5c0>
80000b20:	02098c63          	beqz	s3,80000b58 <vprintfmt+0x4f0>
80000b24:	000ac783          	lbu	a5,0(s5)
80000b28:	02078863          	beqz	a5,80000b58 <vprintfmt+0x4f0>
80000b2c:	001a8793          	addi	a5,s5,1
80000b30:	013a8633          	add	a2,s5,s3
80000b34:	0100006f          	j	80000b44 <vprintfmt+0x4dc>
80000b38:	00178793          	addi	a5,a5,1
80000b3c:	fff7c703          	lbu	a4,-1(a5)
80000b40:	f4070ee3          	beqz	a4,80000a9c <vprintfmt+0x434>
80000b44:	00078693          	mv	a3,a5
80000b48:	fec798e3          	bne	a5,a2,80000b38 <vprintfmt+0x4d0>
80000b4c:	415787b3          	sub	a5,a5,s5
80000b50:	40fa0a33          	sub	s4,s4,a5
80000b54:	f5405ae3          	blez	s4,80000aa8 <vprintfmt+0x440>
80000b58:	fffa0a13          	addi	s4,s4,-1
80000b5c:	00048593          	mv	a1,s1
80000b60:	000b0513          	mv	a0,s6
80000b64:	000900e7          	jalr	s2
80000b68:	f40a00e3          	beqz	s4,80000aa8 <vprintfmt+0x440>
80000b6c:	fffa0a13          	addi	s4,s4,-1
80000b70:	00048593          	mv	a1,s1
80000b74:	000b0513          	mv	a0,s6
80000b78:	000900e7          	jalr	s2
80000b7c:	fc0a1ee3          	bnez	s4,80000b58 <vprintfmt+0x4f0>
80000b80:	f29ff06f          	j	80000aa8 <vprintfmt+0x440>

80000b84 <sprintf_putch.2590>:
80000b84:	0005a783          	lw	a5,0(a1)
80000b88:	00a78023          	sb	a0,0(a5)
80000b8c:	0005a783          	lw	a5,0(a1)
80000b90:	00178793          	addi	a5,a5,1
80000b94:	00f5a023          	sw	a5,0(a1)
80000b98:	00008067          	ret

80000b9c <tohost_exit>:
80000b9c:	00151513          	slli	a0,a0,0x1
80000ba0:	00003697          	auipc	a3,0x3
80000ba4:	6a068693          	addi	a3,a3,1696 # 80004240 <tohost>
80000ba8:	00156713          	ori	a4,a0,1
80000bac:	00000793          	li	a5,0
80000bb0:	00e6a023          	sw	a4,0(a3)
80000bb4:	00f6a223          	sw	a5,4(a3)
80000bb8:	0000006f          	j	80000bb8 <tohost_exit+0x1c>

80000bbc <handle_trap>:
80000bbc:	00b00713          	li	a4,11
80000bc0:	02e50263          	beq	a0,a4,80000be4 <handle_trap+0x28>
80000bc4:	00001637          	lui	a2,0x1
80000bc8:	00003797          	auipc	a5,0x3
80000bcc:	67878793          	addi	a5,a5,1656 # 80004240 <tohost>
80000bd0:	a7360613          	addi	a2,a2,-1421 # a73 <_tbss_end+0xa73>
80000bd4:	00000693          	li	a3,0
80000bd8:	00c7a023          	sw	a2,0(a5)
80000bdc:	00d7a223          	sw	a3,4(a5)
80000be0:	0000006f          	j	80000be0 <handle_trap+0x24>
80000be4:	04462703          	lw	a4,68(a2)
80000be8:	f7010113          	addi	sp,sp,-144
80000bec:	00058693          	mv	a3,a1
80000bf0:	08112623          	sw	ra,140(sp)
80000bf4:	05d00593          	li	a1,93
80000bf8:	02862503          	lw	a0,40(a2)
80000bfc:	0cb70263          	beq	a4,a1,80000cc0 <handle_trap+0x104>
80000c00:	4d200593          	li	a1,1234
80000c04:	0cb70063          	beq	a4,a1,80000cc4 <handle_trap+0x108>
80000c08:	03f10793          	addi	a5,sp,63
80000c0c:	fc07f793          	andi	a5,a5,-64
80000c10:	00e7a023          	sw	a4,0(a5)
80000c14:	00000f93          	li	t6,0
80000c18:	01f7a223          	sw	t6,4(a5)
80000c1c:	02c62303          	lw	t1,44(a2)
80000c20:	00a7a423          	sw	a0,8(a5)
80000c24:	00000e93          	li	t4,0
80000c28:	01d7a623          	sw	t4,12(a5)
80000c2c:	03062803          	lw	a6,48(a2)
80000c30:	0067a823          	sw	t1,16(a5)
80000c34:	00000393          	li	t2,0
80000c38:	0077aa23          	sw	t2,20(a5)
80000c3c:	0107ac23          	sw	a6,24(a5)
80000c40:	00000893          	li	a7,0
80000c44:	0117ae23          	sw	a7,28(a5)
80000c48:	0ff0000f          	fence
80000c4c:	00003717          	auipc	a4,0x3
80000c50:	5f470713          	addi	a4,a4,1524 # 80004240 <tohost>
80000c54:	00f72023          	sw	a5,0(a4)
80000c58:	00000593          	li	a1,0
80000c5c:	00b72223          	sw	a1,4(a4)
80000c60:	00003717          	auipc	a4,0x3
80000c64:	62070713          	addi	a4,a4,1568 # 80004280 <fromhost>
80000c68:	00072503          	lw	a0,0(a4)
80000c6c:	00472583          	lw	a1,4(a4)
80000c70:	00b56533          	or	a0,a0,a1
80000c74:	fe050ae3          	beqz	a0,80000c68 <handle_trap+0xac>
80000c78:	00000513          	li	a0,0
80000c7c:	00a72023          	sw	a0,0(a4)
80000c80:	00000593          	li	a1,0
80000c84:	00b72223          	sw	a1,4(a4)
80000c88:	0ff0000f          	fence
80000c8c:	0007a503          	lw	a0,0(a5)
80000c90:	0047a583          	lw	a1,4(a5)
80000c94:	0006d783          	lhu	a5,0(a3)
80000c98:	00300713          	li	a4,3
80000c9c:	02a62423          	sw	a0,40(a2)
80000ca0:	0037f793          	andi	a5,a5,3
80000ca4:	00400513          	li	a0,4
80000ca8:	00e78463          	beq	a5,a4,80000cb0 <handle_trap+0xf4>
80000cac:	00200513          	li	a0,2
80000cb0:	08c12083          	lw	ra,140(sp)
80000cb4:	00d50533          	add	a0,a0,a3
80000cb8:	09010113          	addi	sp,sp,144
80000cbc:	00008067          	ret
80000cc0:	eddff0ef          	jal	ra,80000b9c <tohost_exit>
80000cc4:	b00027f3          	csrr	a5,mcycle
80000cc8:	02051263          	bnez	a0,80000cec <handle_trap+0x130>
80000ccc:	00004717          	auipc	a4,0x4
80000cd0:	fec70713          	addi	a4,a4,-20 # 80004cb8 <counters>
80000cd4:	00072703          	lw	a4,0(a4)
80000cd8:	00004697          	auipc	a3,0x4
80000cdc:	b7868693          	addi	a3,a3,-1160 # 80004850 <_GLOBAL_OFFSET_TABLE_+0x5c8>
80000ce0:	00004617          	auipc	a2,0x4
80000ce4:	fcd62a23          	sw	a3,-44(a2) # 80004cb4 <counter_names>
80000ce8:	40e787b3          	sub	a5,a5,a4
80000cec:	00004717          	auipc	a4,0x4
80000cf0:	fcf72623          	sw	a5,-52(a4) # 80004cb8 <counters>
80000cf4:	0000006f          	j	80000cf4 <handle_trap+0x138>

80000cf8 <exit>:
80000cf8:	05d00893          	li	a7,93
80000cfc:	00000593          	li	a1,0
80000d00:	00000613          	li	a2,0
80000d04:	00000073          	ecall
80000d08:	00000073          	ecall
80000d0c:	0000006f          	j	80000d0c <exit+0x14>

80000d10 <setStats>:
80000d10:	00008067          	ret

80000d14 <printstr>:
80000d14:	ff010113          	addi	sp,sp,-16
80000d18:	00812423          	sw	s0,8(sp)
80000d1c:	00112623          	sw	ra,12(sp)
80000d20:	00050413          	mv	s0,a0
80000d24:	00054503          	lbu	a0,0(a0)
80000d28:	00050a63          	beqz	a0,80000d3c <printstr+0x28>
80000d2c:	00140413          	addi	s0,s0,1
80000d30:	8e1ff0ef          	jal	ra,80000610 <putchar>
80000d34:	00044503          	lbu	a0,0(s0)
80000d38:	fe051ae3          	bnez	a0,80000d2c <printstr+0x18>
80000d3c:	00c12083          	lw	ra,12(sp)
80000d40:	00812403          	lw	s0,8(sp)
80000d44:	01010113          	addi	sp,sp,16
80000d48:	00008067          	ret

80000d4c <thread_entry>:
80000d4c:	00050463          	beqz	a0,80000d54 <thread_entry+0x8>
80000d50:	0000006f          	j	80000d50 <thread_entry+0x4>
80000d54:	00008067          	ret

80000d58 <printhex>:
80000d58:	fd010113          	addi	sp,sp,-48
80000d5c:	02812423          	sw	s0,40(sp)
80000d60:	02112623          	sw	ra,44(sp)
80000d64:	00c10413          	addi	s0,sp,12
80000d68:	01b10713          	addi	a4,sp,27
80000d6c:	00900893          	li	a7,9
80000d70:	0080006f          	j	80000d78 <printhex+0x20>
80000d74:	00078713          	mv	a4,a5
80000d78:	00f57693          	andi	a3,a0,15
80000d7c:	01c59813          	slli	a6,a1,0x1c
80000d80:	00455513          	srli	a0,a0,0x4
80000d84:	05700613          	li	a2,87
80000d88:	0ff6f793          	andi	a5,a3,255
80000d8c:	00d8e463          	bltu	a7,a3,80000d94 <printhex+0x3c>
80000d90:	03000613          	li	a2,48
80000d94:	00c787b3          	add	a5,a5,a2
80000d98:	00f70023          	sb	a5,0(a4)
80000d9c:	00a86533          	or	a0,a6,a0
80000da0:	fff70793          	addi	a5,a4,-1
80000da4:	0045d593          	srli	a1,a1,0x4
80000da8:	fce416e3          	bne	s0,a4,80000d74 <printhex+0x1c>
80000dac:	00c14503          	lbu	a0,12(sp)
80000db0:	00010e23          	sb	zero,28(sp)
80000db4:	00050a63          	beqz	a0,80000dc8 <printhex+0x70>
80000db8:	00140413          	addi	s0,s0,1
80000dbc:	855ff0ef          	jal	ra,80000610 <putchar>
80000dc0:	00044503          	lbu	a0,0(s0)
80000dc4:	fe051ae3          	bnez	a0,80000db8 <printhex+0x60>
80000dc8:	02c12083          	lw	ra,44(sp)
80000dcc:	02812403          	lw	s0,40(sp)
80000dd0:	03010113          	addi	sp,sp,48
80000dd4:	00008067          	ret

80000dd8 <printf>:
80000dd8:	fc010113          	addi	sp,sp,-64
80000ddc:	02410313          	addi	t1,sp,36
80000de0:	02b12223          	sw	a1,36(sp)
80000de4:	02c12423          	sw	a2,40(sp)
80000de8:	02d12623          	sw	a3,44(sp)
80000dec:	00050613          	mv	a2,a0
80000df0:	00030693          	mv	a3,t1
80000df4:	00000517          	auipc	a0,0x0
80000df8:	81c50513          	addi	a0,a0,-2020 # 80000610 <putchar>
80000dfc:	00000593          	li	a1,0
80000e00:	00112e23          	sw	ra,28(sp)
80000e04:	02e12823          	sw	a4,48(sp)
80000e08:	02f12a23          	sw	a5,52(sp)
80000e0c:	03012c23          	sw	a6,56(sp)
80000e10:	03112e23          	sw	a7,60(sp)
80000e14:	00612623          	sw	t1,12(sp)
80000e18:	851ff0ef          	jal	ra,80000668 <vprintfmt>
80000e1c:	01c12083          	lw	ra,28(sp)
80000e20:	00000513          	li	a0,0
80000e24:	04010113          	addi	sp,sp,64
80000e28:	00008067          	ret

80000e2c <sprintf>:
80000e2c:	fb010113          	addi	sp,sp,-80
80000e30:	03810313          	addi	t1,sp,56
80000e34:	02812423          	sw	s0,40(sp)
80000e38:	00a12623          	sw	a0,12(sp)
80000e3c:	02c12c23          	sw	a2,56(sp)
80000e40:	02d12e23          	sw	a3,60(sp)
80000e44:	00050413          	mv	s0,a0
80000e48:	00058613          	mv	a2,a1
80000e4c:	00000517          	auipc	a0,0x0
80000e50:	d3850513          	addi	a0,a0,-712 # 80000b84 <sprintf_putch.2590>
80000e54:	00c10593          	addi	a1,sp,12
80000e58:	00030693          	mv	a3,t1
80000e5c:	02112623          	sw	ra,44(sp)
80000e60:	04f12223          	sw	a5,68(sp)
80000e64:	04e12023          	sw	a4,64(sp)
80000e68:	05012423          	sw	a6,72(sp)
80000e6c:	05112623          	sw	a7,76(sp)
80000e70:	00612e23          	sw	t1,28(sp)
80000e74:	ff4ff0ef          	jal	ra,80000668 <vprintfmt>
80000e78:	00c12783          	lw	a5,12(sp)
80000e7c:	00078023          	sb	zero,0(a5)
80000e80:	00c12503          	lw	a0,12(sp)
80000e84:	02c12083          	lw	ra,44(sp)
80000e88:	40850533          	sub	a0,a0,s0
80000e8c:	02812403          	lw	s0,40(sp)
80000e90:	05010113          	addi	sp,sp,80
80000e94:	00008067          	ret

80000e98 <memcpy>:
80000e98:	00c5e7b3          	or	a5,a1,a2
80000e9c:	00f567b3          	or	a5,a0,a5
80000ea0:	0037f793          	andi	a5,a5,3
80000ea4:	00c506b3          	add	a3,a0,a2
80000ea8:	02078463          	beqz	a5,80000ed0 <memcpy+0x38>
80000eac:	00c58633          	add	a2,a1,a2
80000eb0:	00050793          	mv	a5,a0
80000eb4:	02d57e63          	bgeu	a0,a3,80000ef0 <memcpy+0x58>
80000eb8:	00158593          	addi	a1,a1,1
80000ebc:	fff5c703          	lbu	a4,-1(a1)
80000ec0:	00178793          	addi	a5,a5,1
80000ec4:	fee78fa3          	sb	a4,-1(a5)
80000ec8:	feb618e3          	bne	a2,a1,80000eb8 <memcpy+0x20>
80000ecc:	00008067          	ret
80000ed0:	fed57ee3          	bgeu	a0,a3,80000ecc <memcpy+0x34>
80000ed4:	00050793          	mv	a5,a0
80000ed8:	00458593          	addi	a1,a1,4
80000edc:	ffc5a703          	lw	a4,-4(a1)
80000ee0:	00478793          	addi	a5,a5,4
80000ee4:	fee7ae23          	sw	a4,-4(a5)
80000ee8:	fed7e8e3          	bltu	a5,a3,80000ed8 <memcpy+0x40>
80000eec:	00008067          	ret
80000ef0:	00008067          	ret

80000ef4 <memset>:
80000ef4:	00c567b3          	or	a5,a0,a2
80000ef8:	0037f793          	andi	a5,a5,3
80000efc:	00c50633          	add	a2,a0,a2
80000f00:	02078063          	beqz	a5,80000f20 <memset+0x2c>
80000f04:	0ff5f593          	andi	a1,a1,255
80000f08:	00050793          	mv	a5,a0
80000f0c:	04c57063          	bgeu	a0,a2,80000f4c <memset+0x58>
80000f10:	00178793          	addi	a5,a5,1
80000f14:	feb78fa3          	sb	a1,-1(a5)
80000f18:	fef61ce3          	bne	a2,a5,80000f10 <memset+0x1c>
80000f1c:	00008067          	ret
80000f20:	0ff5f593          	andi	a1,a1,255
80000f24:	00859713          	slli	a4,a1,0x8
80000f28:	00e5e733          	or	a4,a1,a4
80000f2c:	01071793          	slli	a5,a4,0x10
80000f30:	00f76733          	or	a4,a4,a5
80000f34:	fec574e3          	bgeu	a0,a2,80000f1c <memset+0x28>
80000f38:	00050793          	mv	a5,a0
80000f3c:	00478793          	addi	a5,a5,4
80000f40:	fee7ae23          	sw	a4,-4(a5)
80000f44:	fec7ece3          	bltu	a5,a2,80000f3c <memset+0x48>
80000f48:	00008067          	ret
80000f4c:	00008067          	ret

80000f50 <_init>:
80000f50:	f8010113          	addi	sp,sp,-128
80000f54:	06912a23          	sw	s1,116(sp)
80000f58:	07212823          	sw	s2,112(sp)
80000f5c:	00020913          	mv	s2,tp
80000f60:	00020493          	mv	s1,tp
80000f64:	409904b3          	sub	s1,s2,s1
80000f68:	00048613          	mv	a2,s1
80000f6c:	07312623          	sw	s3,108(sp)
80000f70:	07412423          	sw	s4,104(sp)
80000f74:	00050993          	mv	s3,a0
80000f78:	00058a13          	mv	s4,a1
80000f7c:	00020513          	mv	a0,tp
80000f80:	00006597          	auipc	a1,0x6
80000f84:	51458593          	addi	a1,a1,1300 # 80007494 <_end>
80000f88:	06112e23          	sw	ra,124(sp)
80000f8c:	07512223          	sw	s5,100(sp)
80000f90:	06812c23          	sw	s0,120(sp)
80000f94:	00020a93          	mv	s5,tp
80000f98:	f01ff0ef          	jal	ra,80000e98 <memcpy>
80000f9c:	00020613          	mv	a2,tp
80000fa0:	41260633          	sub	a2,a2,s2
80000fa4:	00000593          	li	a1,0
80000fa8:	009a8533          	add	a0,s5,s1
80000fac:	f49ff0ef          	jal	ra,80000ef4 <memset>
80000fb0:	000a0593          	mv	a1,s4
80000fb4:	00098513          	mv	a0,s3
80000fb8:	d95ff0ef          	jal	ra,80000d4c <thread_entry>
80000fbc:	00000593          	li	a1,0
80000fc0:	00000513          	li	a0,0
80000fc4:	1b9020ef          	jal	ra,8000397c <main>
80000fc8:	00004797          	auipc	a5,0x4
80000fcc:	cf078793          	addi	a5,a5,-784 # 80004cb8 <counters>
80000fd0:	0007a683          	lw	a3,0(a5)
80000fd4:	00050493          	mv	s1,a0
80000fd8:	00069663          	bnez	a3,80000fe4 <_init+0x94>
80000fdc:	00048513          	mv	a0,s1
80000fe0:	d19ff0ef          	jal	ra,80000cf8 <exit>
80000fe4:	00004797          	auipc	a5,0x4
80000fe8:	cd078793          	addi	a5,a5,-816 # 80004cb4 <counter_names>
80000fec:	03f10413          	addi	s0,sp,63
80000ff0:	0007a603          	lw	a2,0(a5)
80000ff4:	fc047413          	andi	s0,s0,-64
80000ff8:	00004597          	auipc	a1,0x4
80000ffc:	87858593          	addi	a1,a1,-1928 # 80004870 <_GLOBAL_OFFSET_TABLE_+0x5e8>
80001000:	00040513          	mv	a0,s0
80001004:	e29ff0ef          	jal	ra,80000e2c <sprintf>
80001008:	00051863          	bnez	a0,80001018 <_init+0xc8>
8000100c:	fd1ff06f          	j	80000fdc <_init+0x8c>
80001010:	00140413          	addi	s0,s0,1
80001014:	dfcff0ef          	jal	ra,80000610 <putchar>
80001018:	00044503          	lbu	a0,0(s0)
8000101c:	fe051ae3          	bnez	a0,80001010 <_init+0xc0>
80001020:	fbdff06f          	j	80000fdc <_init+0x8c>

80001024 <strlen>:
80001024:	00054783          	lbu	a5,0(a0)
80001028:	00078e63          	beqz	a5,80001044 <strlen+0x20>
8000102c:	00050793          	mv	a5,a0
80001030:	00178793          	addi	a5,a5,1
80001034:	0007c703          	lbu	a4,0(a5)
80001038:	fe071ce3          	bnez	a4,80001030 <strlen+0xc>
8000103c:	40a78533          	sub	a0,a5,a0
80001040:	00008067          	ret
80001044:	00000513          	li	a0,0
80001048:	00008067          	ret

8000104c <strnlen>:
8000104c:	02058463          	beqz	a1,80001074 <strnlen+0x28>
80001050:	00054783          	lbu	a5,0(a0)
80001054:	02078a63          	beqz	a5,80001088 <strnlen+0x3c>
80001058:	00b506b3          	add	a3,a0,a1
8000105c:	00050793          	mv	a5,a0
80001060:	00c0006f          	j	8000106c <strnlen+0x20>
80001064:	0007c703          	lbu	a4,0(a5)
80001068:	00070a63          	beqz	a4,8000107c <strnlen+0x30>
8000106c:	00178793          	addi	a5,a5,1
80001070:	fed79ae3          	bne	a5,a3,80001064 <strnlen+0x18>
80001074:	00058513          	mv	a0,a1
80001078:	00008067          	ret
8000107c:	40a785b3          	sub	a1,a5,a0
80001080:	00058513          	mv	a0,a1
80001084:	00008067          	ret
80001088:	00000593          	li	a1,0
8000108c:	fe9ff06f          	j	80001074 <strnlen+0x28>

80001090 <strcmp>:
80001090:	00150513          	addi	a0,a0,1
80001094:	fff54783          	lbu	a5,-1(a0)
80001098:	00158593          	addi	a1,a1,1
8000109c:	fff5c703          	lbu	a4,-1(a1)
800010a0:	00078863          	beqz	a5,800010b0 <strcmp+0x20>
800010a4:	fee786e3          	beq	a5,a4,80001090 <strcmp>
800010a8:	40e78533          	sub	a0,a5,a4
800010ac:	00008067          	ret
800010b0:	00000793          	li	a5,0
800010b4:	ff5ff06f          	j	800010a8 <strcmp+0x18>

800010b8 <strcpy>:
800010b8:	00050793          	mv	a5,a0
800010bc:	00158593          	addi	a1,a1,1
800010c0:	fff5c703          	lbu	a4,-1(a1)
800010c4:	00178793          	addi	a5,a5,1
800010c8:	fee78fa3          	sb	a4,-1(a5)
800010cc:	fe0718e3          	bnez	a4,800010bc <strcpy+0x4>
800010d0:	00008067          	ret

800010d4 <atol>:
800010d4:	00054783          	lbu	a5,0(a0)
800010d8:	02000713          	li	a4,32
800010dc:	00e79863          	bne	a5,a4,800010ec <atol+0x18>
800010e0:	00150513          	addi	a0,a0,1
800010e4:	00054783          	lbu	a5,0(a0)
800010e8:	fee78ce3          	beq	a5,a4,800010e0 <atol+0xc>
800010ec:	fd578713          	addi	a4,a5,-43
800010f0:	0fd77713          	andi	a4,a4,253
800010f4:	04070263          	beqz	a4,80001138 <atol+0x64>
800010f8:	00054683          	lbu	a3,0(a0)
800010fc:	00050793          	mv	a5,a0
80001100:	00000613          	li	a2,0
80001104:	04068863          	beqz	a3,80001154 <atol+0x80>
80001108:	00000513          	li	a0,0
8000110c:	00178793          	addi	a5,a5,1
80001110:	fd068593          	addi	a1,a3,-48
80001114:	00251713          	slli	a4,a0,0x2
80001118:	0007c683          	lbu	a3,0(a5)
8000111c:	00a70533          	add	a0,a4,a0
80001120:	00151513          	slli	a0,a0,0x1
80001124:	00a58533          	add	a0,a1,a0
80001128:	fe0692e3          	bnez	a3,8000110c <atol+0x38>
8000112c:	00060463          	beqz	a2,80001134 <atol+0x60>
80001130:	40a00533          	neg	a0,a0
80001134:	00008067          	ret
80001138:	00154683          	lbu	a3,1(a0)
8000113c:	fd378793          	addi	a5,a5,-45
80001140:	0017b613          	seqz	a2,a5
80001144:	00150793          	addi	a5,a0,1
80001148:	fc0690e3          	bnez	a3,80001108 <atol+0x34>
8000114c:	00000513          	li	a0,0
80001150:	fddff06f          	j	8000112c <atol+0x58>
80001154:	00000513          	li	a0,0
80001158:	00008067          	ret

8000115c <get_nharts>:
8000115c:	000017b7          	lui	a5,0x1
80001160:	00c7a783          	lw	a5,12(a5) # 100c <_tbss_end+0x100c>
80001164:	00800337          	lui	t1,0x800
80001168:	06300693          	li	a3,99
8000116c:	0007c703          	lbu	a4,0(a5)
80001170:	00003617          	auipc	a2,0x3
80001174:	70c60613          	addi	a2,a2,1804 # 8000487c <_GLOBAL_OFFSET_TABLE_+0x5f4>
80001178:	01700f93          	li	t6,23
8000117c:	01330313          	addi	t1,t1,19 # 800013 <_tbss_end+0x800013>
80001180:	07b00813          	li	a6,123
80001184:	07d00293          	li	t0,125
80001188:	03b00e93          	li	t4,59
8000118c:	02f00893          	li	a7,47
80001190:	0e070e63          	beqz	a4,8000128c <get_nharts+0x130>
80001194:	00070513          	mv	a0,a4
80001198:	ff750e13          	addi	t3,a0,-9
8000119c:	0ffe7e13          	andi	t3,t3,255
800011a0:	01c35f33          	srl	t5,t1,t3
800011a4:	00078593          	mv	a1,a5
800011a8:	001f7f13          	andi	t5,t5,1
800011ac:	17cfe663          	bltu	t6,t3,80001318 <get_nharts+0x1bc>
800011b0:	140f1663          	bnez	t5,800012fc <get_nharts+0x1a0>
800011b4:	03168663          	beq	a3,a7,800011e0 <get_nharts+0x84>
800011b8:	02d51463          	bne	a0,a3,800011e0 <get_nharts+0x84>
800011bc:	00060693          	mv	a3,a2
800011c0:	00168693          	addi	a3,a3,1
800011c4:	0006c503          	lbu	a0,0(a3)
800011c8:	00158593          	addi	a1,a1,1
800011cc:	14050c63          	beqz	a0,80001324 <get_nharts+0x1c8>
800011d0:	15150a63          	beq	a0,a7,80001324 <get_nharts+0x1c8>
800011d4:	0005ce03          	lbu	t3,0(a1)
800011d8:	000e0463          	beqz	t3,800011e0 <get_nharts+0x84>
800011dc:	ffc502e3          	beq	a0,t3,800011c0 <get_nharts+0x64>
800011e0:	0b070a63          	beq	a4,a6,80001294 <get_nharts+0x138>
800011e4:	21d70063          	beq	a4,t4,800013e4 <get_nharts+0x288>
800011e8:	00178793          	addi	a5,a5,1
800011ec:	0007c703          	lbu	a4,0(a5)
800011f0:	fe0718e3          	bnez	a4,800011e0 <get_nharts+0x84>
800011f4:	00064683          	lbu	a3,0(a2)
800011f8:	f8069ce3          	bnez	a3,80001190 <get_nharts+0x34>
800011fc:	08070863          	beqz	a4,8000128c <get_nharts+0x130>
80001200:	00800637          	lui	a2,0x800
80001204:	01700593          	li	a1,23
80001208:	01360613          	addi	a2,a2,19 # 800013 <_tbss_end+0x800013>
8000120c:	ff770713          	addi	a4,a4,-9
80001210:	0ff77713          	andi	a4,a4,255
80001214:	00e656b3          	srl	a3,a2,a4
80001218:	0016f693          	andi	a3,a3,1
8000121c:	00e5e463          	bltu	a1,a4,80001224 <get_nharts+0xc8>
80001220:	1a069863          	bnez	a3,800013d0 <get_nharts+0x274>
80001224:	0007c683          	lbu	a3,0(a5)
80001228:	06068263          	beqz	a3,8000128c <get_nharts+0x130>
8000122c:	ff768713          	addi	a4,a3,-9
80001230:	0ff77613          	andi	a2,a4,255
80001234:	01700693          	li	a3,23
80001238:	12c6e263          	bltu	a3,a2,8000135c <get_nharts+0x200>
8000123c:	008006b7          	lui	a3,0x800
80001240:	01368693          	addi	a3,a3,19 # 800013 <_tbss_end+0x800013>
80001244:	00c6d6b3          	srl	a3,a3,a2
80001248:	0016f693          	andi	a3,a3,1
8000124c:	10068863          	beqz	a3,8000135c <get_nharts+0x200>
80001250:	00800637          	lui	a2,0x800
80001254:	01700593          	li	a1,23
80001258:	01360613          	addi	a2,a2,19 # 800013 <_tbss_end+0x800013>
8000125c:	0ff77713          	andi	a4,a4,255
80001260:	00e656b3          	srl	a3,a2,a4
80001264:	0016f693          	andi	a3,a3,1
80001268:	00e5e463          	bltu	a1,a4,80001270 <get_nharts+0x114>
8000126c:	12069263          	bnez	a3,80001390 <get_nharts+0x234>
80001270:	0007c703          	lbu	a4,0(a5)
80001274:	00070c63          	beqz	a4,8000128c <get_nharts+0x130>
80001278:	07b00693          	li	a3,123
8000127c:	16d70e63          	beq	a4,a3,800013f8 <get_nharts+0x29c>
80001280:	00178793          	addi	a5,a5,1
80001284:	0007c703          	lbu	a4,0(a5)
80001288:	fe071ae3          	bnez	a4,8000127c <get_nharts+0x120>
8000128c:	fff00513          	li	a0,-1
80001290:	00008067          	ret
80001294:	0017ce03          	lbu	t3,1(a5)
80001298:	00178593          	addi	a1,a5,1
8000129c:	00064683          	lbu	a3,0(a2)
800012a0:	00100513          	li	a0,1
800012a4:	00000713          	li	a4,0
800012a8:	00058793          	mv	a5,a1
800012ac:	020e1063          	bnez	t3,800012cc <get_nharts+0x170>
800012b0:	f49ff06f          	j	800011f8 <get_nharts+0x9c>
800012b4:	025e1463          	bne	t3,t0,800012dc <get_nharts+0x180>
800012b8:	fff50513          	addi	a0,a0,-1
800012bc:	f2070ee3          	beqz	a4,800011f8 <get_nharts+0x9c>
800012c0:	02050463          	beqz	a0,800012e8 <get_nharts+0x18c>
800012c4:	00078593          	mv	a1,a5
800012c8:	00070e13          	mv	t3,a4
800012cc:	0015c703          	lbu	a4,1(a1)
800012d0:	00158793          	addi	a5,a1,1
800012d4:	ff0e10e3          	bne	t3,a6,800012b4 <get_nharts+0x158>
800012d8:	00150513          	addi	a0,a0,1
800012dc:	fe0714e3          	bnez	a4,800012c4 <get_nharts+0x168>
800012e0:	ea0698e3          	bnez	a3,80001190 <get_nharts+0x34>
800012e4:	f19ff06f          	j	800011fc <get_nharts+0xa0>
800012e8:	f1d718e3          	bne	a4,t4,800011f8 <get_nharts+0x9c>
800012ec:	0025c703          	lbu	a4,2(a1)
800012f0:	00258793          	addi	a5,a1,2
800012f4:	e8069ee3          	bnez	a3,80001190 <get_nharts+0x34>
800012f8:	f05ff06f          	j	800011fc <get_nharts+0xa0>
800012fc:	00158593          	addi	a1,a1,1
80001300:	0005c503          	lbu	a0,0(a1)
80001304:	ff750e13          	addi	t3,a0,-9
80001308:	0ffe7e13          	andi	t3,t3,255
8000130c:	01c35f33          	srl	t5,t1,t3
80001310:	001f7f13          	andi	t5,t5,1
80001314:	e9cffee3          	bgeu	t6,t3,800011b0 <get_nharts+0x54>
80001318:	ed1684e3          	beq	a3,a7,800011e0 <get_nharts+0x84>
8000131c:	e8051ee3          	bnez	a0,800011b8 <get_nharts+0x5c>
80001320:	ec1ff06f          	j	800011e0 <get_nharts+0x84>
80001324:	0005c683          	lbu	a3,0(a1)
80001328:	ff768693          	addi	a3,a3,-9
8000132c:	0ff6f693          	andi	a3,a3,255
80001330:	eadfe8e3          	bltu	t6,a3,800011e0 <get_nharts+0x84>
80001334:	00d356b3          	srl	a3,t1,a3
80001338:	0016f693          	andi	a3,a3,1
8000133c:	00069863          	bnez	a3,8000134c <get_nharts+0x1f0>
80001340:	ea1ff06f          	j	800011e0 <get_nharts+0x84>
80001344:	07158063          	beq	a1,a7,800013a4 <get_nharts+0x248>
80001348:	00068613          	mv	a2,a3
8000134c:	00164583          	lbu	a1,1(a2)
80001350:	00160693          	addi	a3,a2,1
80001354:	fe0598e3          	bnez	a1,80001344 <get_nharts+0x1e8>
80001358:	ea9ff06f          	j	80001200 <get_nharts+0xa4>
8000135c:	00800637          	lui	a2,0x800
80001360:	01700813          	li	a6,23
80001364:	01360613          	addi	a2,a2,19 # 800013 <_tbss_end+0x800013>
80001368:	00178793          	addi	a5,a5,1
8000136c:	0007c683          	lbu	a3,0(a5)
80001370:	ff768713          	addi	a4,a3,-9
80001374:	0ff77513          	andi	a0,a4,255
80001378:	00a655b3          	srl	a1,a2,a0
8000137c:	0015f593          	andi	a1,a1,1
80001380:	f00686e3          	beqz	a3,8000128c <get_nharts+0x130>
80001384:	fea862e3          	bltu	a6,a0,80001368 <get_nharts+0x20c>
80001388:	fe0580e3          	beqz	a1,80001368 <get_nharts+0x20c>
8000138c:	ec5ff06f          	j	80001250 <get_nharts+0xf4>
80001390:	00178793          	addi	a5,a5,1
80001394:	0007c683          	lbu	a3,0(a5)
80001398:	ee068ae3          	beqz	a3,8000128c <get_nharts+0x130>
8000139c:	ff768713          	addi	a4,a3,-9
800013a0:	ebdff06f          	j	8000125c <get_nharts+0x100>
800013a4:	0016c683          	lbu	a3,1(a3)
800013a8:	00260613          	addi	a2,a2,2
800013ac:	e4068ae3          	beqz	a3,80001200 <get_nharts+0xa4>
800013b0:	01070a63          	beq	a4,a6,800013c4 <get_nharts+0x268>
800013b4:	00178793          	addi	a5,a5,1
800013b8:	0007c703          	lbu	a4,0(a5)
800013bc:	ec0708e3          	beqz	a4,8000128c <get_nharts+0x130>
800013c0:	ff071ae3          	bne	a4,a6,800013b4 <get_nharts+0x258>
800013c4:	0017c703          	lbu	a4,1(a5)
800013c8:	00178793          	addi	a5,a5,1
800013cc:	dc5ff06f          	j	80001190 <get_nharts+0x34>
800013d0:	00178793          	addi	a5,a5,1
800013d4:	0007c703          	lbu	a4,0(a5)
800013d8:	e2071ae3          	bnez	a4,8000120c <get_nharts+0xb0>
800013dc:	fff00513          	li	a0,-1
800013e0:	00008067          	ret
800013e4:	00064683          	lbu	a3,0(a2)
800013e8:	0017c703          	lbu	a4,1(a5)
800013ec:	00178793          	addi	a5,a5,1
800013f0:	da0690e3          	bnez	a3,80001190 <get_nharts+0x34>
800013f4:	e09ff06f          	j	800011fc <get_nharts+0xa0>
800013f8:	0017c703          	lbu	a4,1(a5)
800013fc:	00178793          	addi	a5,a5,1
80001400:	e80706e3          	beqz	a4,8000128c <get_nharts+0x130>
80001404:	00800337          	lui	t1,0x800
80001408:	00000513          	li	a0,0
8000140c:	07b00893          	li	a7,123
80001410:	03b00813          	li	a6,59
80001414:	07d00e13          	li	t3,125
80001418:	01700e93          	li	t4,23
8000141c:	01330313          	addi	t1,t1,19 # 800013 <_tbss_end+0x800013>
80001420:	05170663          	beq	a4,a7,8000146c <get_nharts+0x310>
80001424:	01070a63          	beq	a4,a6,80001438 <get_nharts+0x2dc>
80001428:	00178793          	addi	a5,a5,1
8000142c:	0007c703          	lbu	a4,0(a5)
80001430:	fe0718e3          	bnez	a4,80001420 <get_nharts+0x2c4>
80001434:	00008067          	ret
80001438:	0017c703          	lbu	a4,1(a5)
8000143c:	00178793          	addi	a5,a5,1
80001440:	0a070863          	beqz	a4,800014f0 <get_nharts+0x394>
80001444:	ff770693          	addi	a3,a4,-9
80001448:	0ff6f693          	andi	a3,a3,255
8000144c:	00d35633          	srl	a2,t1,a3
80001450:	00167613          	andi	a2,a2,1
80001454:	06deee63          	bltu	t4,a3,800014d0 <get_nharts+0x374>
80001458:	04061c63          	bnez	a2,800014b0 <get_nharts+0x354>
8000145c:	00150513          	addi	a0,a0,1
80001460:	0007c703          	lbu	a4,0(a5)
80001464:	fc0708e3          	beqz	a4,80001434 <get_nharts+0x2d8>
80001468:	fb171ee3          	bne	a4,a7,80001424 <get_nharts+0x2c8>
8000146c:	0017c583          	lbu	a1,1(a5)
80001470:	00178693          	addi	a3,a5,1
80001474:	06058c63          	beqz	a1,800014ec <get_nharts+0x390>
80001478:	00100613          	li	a2,1
8000147c:	01c0006f          	j	80001498 <get_nharts+0x33c>
80001480:	03c59463          	bne	a1,t3,800014a8 <get_nharts+0x34c>
80001484:	fff60613          	addi	a2,a2,-1
80001488:	fa0706e3          	beqz	a4,80001434 <get_nharts+0x2d8>
8000148c:	04060863          	beqz	a2,800014dc <get_nharts+0x380>
80001490:	00078693          	mv	a3,a5
80001494:	00070593          	mv	a1,a4
80001498:	0016c703          	lbu	a4,1(a3)
8000149c:	00168793          	addi	a5,a3,1
800014a0:	ff1590e3          	bne	a1,a7,80001480 <get_nharts+0x324>
800014a4:	00160613          	addi	a2,a2,1
800014a8:	fe0714e3          	bnez	a4,80001490 <get_nharts+0x334>
800014ac:	00008067          	ret
800014b0:	00178793          	addi	a5,a5,1
800014b4:	0007c703          	lbu	a4,0(a5)
800014b8:	f6070ee3          	beqz	a4,80001434 <get_nharts+0x2d8>
800014bc:	ff770693          	addi	a3,a4,-9
800014c0:	0ff6f693          	andi	a3,a3,255
800014c4:	00d35633          	srl	a2,t1,a3
800014c8:	00167613          	andi	a2,a2,1
800014cc:	f8def6e3          	bgeu	t4,a3,80001458 <get_nharts+0x2fc>
800014d0:	00150513          	addi	a0,a0,1
800014d4:	f9c716e3          	bne	a4,t3,80001460 <get_nharts+0x304>
800014d8:	00008067          	ret
800014dc:	f70714e3          	bne	a4,a6,80001444 <get_nharts+0x2e8>
800014e0:	00268793          	addi	a5,a3,2
800014e4:	0026c703          	lbu	a4,2(a3)
800014e8:	f59ff06f          	j	80001440 <get_nharts+0x2e4>
800014ec:	00008067          	ret
800014f0:	00008067          	ret

800014f4 <__moddi3>:
800014f4:	fc010113          	addi	sp,sp,-64
800014f8:	02812c23          	sw	s0,56(sp)
800014fc:	02912a23          	sw	s1,52(sp)
80001500:	03212823          	sw	s2,48(sp)
80001504:	02112e23          	sw	ra,60(sp)
80001508:	03312623          	sw	s3,44(sp)
8000150c:	03412423          	sw	s4,40(sp)
80001510:	03512223          	sw	s5,36(sp)
80001514:	03612023          	sw	s6,32(sp)
80001518:	01712e23          	sw	s7,28(sp)
8000151c:	01812c23          	sw	s8,24(sp)
80001520:	01912a23          	sw	s9,20(sp)
80001524:	01a12823          	sw	s10,16(sp)
80001528:	01b12623          	sw	s11,12(sp)
8000152c:	00058493          	mv	s1,a1
80001530:	00050413          	mv	s0,a0
80001534:	00000913          	li	s2,0
80001538:	1605ce63          	bltz	a1,800016b4 <__moddi3+0x1c0>
8000153c:	0006da63          	bgez	a3,80001550 <__moddi3+0x5c>
80001540:	40c00633          	neg	a2,a2
80001544:	00c037b3          	snez	a5,a2
80001548:	40d006b3          	neg	a3,a3
8000154c:	40f686b3          	sub	a3,a3,a5
80001550:	00068a13          	mv	s4,a3
80001554:	00060993          	mv	s3,a2
80001558:	00040a93          	mv	s5,s0
8000155c:	00048b93          	mv	s7,s1
80001560:	24069663          	bnez	a3,800017ac <__moddi3+0x2b8>
80001564:	16c4f463          	bgeu	s1,a2,800016cc <__moddi3+0x1d8>
80001568:	000107b7          	lui	a5,0x10
8000156c:	2cf67663          	bgeu	a2,a5,80001838 <__moddi3+0x344>
80001570:	0ff00793          	li	a5,255
80001574:	00060713          	mv	a4,a2
80001578:	00c7f663          	bgeu	a5,a2,80001584 <__moddi3+0x90>
8000157c:	00865713          	srli	a4,a2,0x8
80001580:	00800a13          	li	s4,8
80001584:	00003797          	auipc	a5,0x3
80001588:	d087a783          	lw	a5,-760(a5) # 8000428c <_GLOBAL_OFFSET_TABLE_+0x4>
8000158c:	00e787b3          	add	a5,a5,a4
80001590:	0007c783          	lbu	a5,0(a5)
80001594:	02000513          	li	a0,32
80001598:	014787b3          	add	a5,a5,s4
8000159c:	40f50a33          	sub	s4,a0,a5
800015a0:	000a0c63          	beqz	s4,800015b8 <__moddi3+0xc4>
800015a4:	014494b3          	sll	s1,s1,s4
800015a8:	00f45bb3          	srl	s7,s0,a5
800015ac:	014619b3          	sll	s3,a2,s4
800015b0:	009bebb3          	or	s7,s7,s1
800015b4:	01441ab3          	sll	s5,s0,s4
800015b8:	0109dc13          	srli	s8,s3,0x10
800015bc:	000c0593          	mv	a1,s8
800015c0:	000b8513          	mv	a0,s7
800015c4:	2c0020ef          	jal	ra,80003884 <__umodsi3>
800015c8:	00050b13          	mv	s6,a0
800015cc:	000c0593          	mv	a1,s8
800015d0:	000b8513          	mv	a0,s7
800015d4:	01099b93          	slli	s7,s3,0x10
800015d8:	264020ef          	jal	ra,8000383c <__udivsi3>
800015dc:	010bdb93          	srli	s7,s7,0x10
800015e0:	00050593          	mv	a1,a0
800015e4:	000b8513          	mv	a0,s7
800015e8:	228020ef          	jal	ra,80003810 <__mulsi3>
800015ec:	010b1b13          	slli	s6,s6,0x10
800015f0:	010ad793          	srli	a5,s5,0x10
800015f4:	00fb67b3          	or	a5,s6,a5
800015f8:	00a7f863          	bgeu	a5,a0,80001608 <__moddi3+0x114>
800015fc:	013787b3          	add	a5,a5,s3
80001600:	0137e463          	bltu	a5,s3,80001608 <__moddi3+0x114>
80001604:	50a7e463          	bltu	a5,a0,80001b0c <__moddi3+0x618>
80001608:	40a78433          	sub	s0,a5,a0
8000160c:	000c0593          	mv	a1,s8
80001610:	00040513          	mv	a0,s0
80001614:	270020ef          	jal	ra,80003884 <__umodsi3>
80001618:	00050493          	mv	s1,a0
8000161c:	000c0593          	mv	a1,s8
80001620:	00040513          	mv	a0,s0
80001624:	218020ef          	jal	ra,8000383c <__udivsi3>
80001628:	00050593          	mv	a1,a0
8000162c:	000b8513          	mv	a0,s7
80001630:	1e0020ef          	jal	ra,80003810 <__mulsi3>
80001634:	010a9793          	slli	a5,s5,0x10
80001638:	01049493          	slli	s1,s1,0x10
8000163c:	0107d793          	srli	a5,a5,0x10
80001640:	00f4e7b3          	or	a5,s1,a5
80001644:	00a7fa63          	bgeu	a5,a0,80001658 <__moddi3+0x164>
80001648:	013787b3          	add	a5,a5,s3
8000164c:	0137e663          	bltu	a5,s3,80001658 <__moddi3+0x164>
80001650:	00a7f463          	bgeu	a5,a0,80001658 <__moddi3+0x164>
80001654:	013787b3          	add	a5,a5,s3
80001658:	40a78533          	sub	a0,a5,a0
8000165c:	01455533          	srl	a0,a0,s4
80001660:	00000593          	li	a1,0
80001664:	00090a63          	beqz	s2,80001678 <__moddi3+0x184>
80001668:	40a00533          	neg	a0,a0
8000166c:	00a037b3          	snez	a5,a0
80001670:	40b004b3          	neg	s1,a1
80001674:	40f485b3          	sub	a1,s1,a5
80001678:	03c12083          	lw	ra,60(sp)
8000167c:	03812403          	lw	s0,56(sp)
80001680:	03412483          	lw	s1,52(sp)
80001684:	03012903          	lw	s2,48(sp)
80001688:	02c12983          	lw	s3,44(sp)
8000168c:	02812a03          	lw	s4,40(sp)
80001690:	02412a83          	lw	s5,36(sp)
80001694:	02012b03          	lw	s6,32(sp)
80001698:	01c12b83          	lw	s7,28(sp)
8000169c:	01812c03          	lw	s8,24(sp)
800016a0:	01412c83          	lw	s9,20(sp)
800016a4:	01012d03          	lw	s10,16(sp)
800016a8:	00c12d83          	lw	s11,12(sp)
800016ac:	04010113          	addi	sp,sp,64
800016b0:	00008067          	ret
800016b4:	40a00433          	neg	s0,a0
800016b8:	008037b3          	snez	a5,s0
800016bc:	40b004b3          	neg	s1,a1
800016c0:	40f484b3          	sub	s1,s1,a5
800016c4:	fff00913          	li	s2,-1
800016c8:	e75ff06f          	j	8000153c <__moddi3+0x48>
800016cc:	00061a63          	bnez	a2,800016e0 <__moddi3+0x1ec>
800016d0:	00000593          	li	a1,0
800016d4:	00100513          	li	a0,1
800016d8:	164020ef          	jal	ra,8000383c <__udivsi3>
800016dc:	00050993          	mv	s3,a0
800016e0:	000107b7          	lui	a5,0x10
800016e4:	12f9ee63          	bltu	s3,a5,80001820 <__moddi3+0x32c>
800016e8:	010007b7          	lui	a5,0x1000
800016ec:	3ef9e063          	bltu	s3,a5,80001acc <__moddi3+0x5d8>
800016f0:	0189d713          	srli	a4,s3,0x18
800016f4:	01800a13          	li	s4,24
800016f8:	00003797          	auipc	a5,0x3
800016fc:	b947a783          	lw	a5,-1132(a5) # 8000428c <_GLOBAL_OFFSET_TABLE_+0x4>
80001700:	00e787b3          	add	a5,a5,a4
80001704:	0007c783          	lbu	a5,0(a5)
80001708:	02000513          	li	a0,32
8000170c:	014787b3          	add	a5,a5,s4
80001710:	40f50a33          	sub	s4,a0,a5
80001714:	120a1c63          	bnez	s4,8000184c <__moddi3+0x358>
80001718:	01099c13          	slli	s8,s3,0x10
8000171c:	413484b3          	sub	s1,s1,s3
80001720:	0109db93          	srli	s7,s3,0x10
80001724:	010c5c13          	srli	s8,s8,0x10
80001728:	000b8593          	mv	a1,s7
8000172c:	00048513          	mv	a0,s1
80001730:	154020ef          	jal	ra,80003884 <__umodsi3>
80001734:	00050b13          	mv	s6,a0
80001738:	000b8593          	mv	a1,s7
8000173c:	00048513          	mv	a0,s1
80001740:	0fc020ef          	jal	ra,8000383c <__udivsi3>
80001744:	000c0593          	mv	a1,s8
80001748:	0c8020ef          	jal	ra,80003810 <__mulsi3>
8000174c:	010b1b13          	slli	s6,s6,0x10
80001750:	010ad793          	srli	a5,s5,0x10
80001754:	00fb67b3          	or	a5,s6,a5
80001758:	00a7fa63          	bgeu	a5,a0,8000176c <__moddi3+0x278>
8000175c:	013787b3          	add	a5,a5,s3
80001760:	0137e663          	bltu	a5,s3,8000176c <__moddi3+0x278>
80001764:	00a7f463          	bgeu	a5,a0,8000176c <__moddi3+0x278>
80001768:	013787b3          	add	a5,a5,s3
8000176c:	40a78433          	sub	s0,a5,a0
80001770:	000b8593          	mv	a1,s7
80001774:	00040513          	mv	a0,s0
80001778:	10c020ef          	jal	ra,80003884 <__umodsi3>
8000177c:	00050493          	mv	s1,a0
80001780:	000b8593          	mv	a1,s7
80001784:	00040513          	mv	a0,s0
80001788:	0b4020ef          	jal	ra,8000383c <__udivsi3>
8000178c:	000c0593          	mv	a1,s8
80001790:	010a9a93          	slli	s5,s5,0x10
80001794:	07c020ef          	jal	ra,80003810 <__mulsi3>
80001798:	01049493          	slli	s1,s1,0x10
8000179c:	010ada93          	srli	s5,s5,0x10
800017a0:	0154e7b3          	or	a5,s1,s5
800017a4:	eaa7fae3          	bgeu	a5,a0,80001658 <__moddi3+0x164>
800017a8:	ea1ff06f          	j	80001648 <__moddi3+0x154>
800017ac:	00040513          	mv	a0,s0
800017b0:	04d4ea63          	bltu	s1,a3,80001804 <__moddi3+0x310>
800017b4:	000107b7          	lui	a5,0x10
800017b8:	04f6ea63          	bltu	a3,a5,8000180c <__moddi3+0x318>
800017bc:	010007b7          	lui	a5,0x1000
800017c0:	30f6ec63          	bltu	a3,a5,80001ad8 <__moddi3+0x5e4>
800017c4:	0186d593          	srli	a1,a3,0x18
800017c8:	01800713          	li	a4,24
800017cc:	00003797          	auipc	a5,0x3
800017d0:	ac07a783          	lw	a5,-1344(a5) # 8000428c <_GLOBAL_OFFSET_TABLE_+0x4>
800017d4:	00b787b3          	add	a5,a5,a1
800017d8:	0007ca83          	lbu	s5,0(a5)
800017dc:	02000593          	li	a1,32
800017e0:	00ea8ab3          	add	s5,s5,a4
800017e4:	41558a33          	sub	s4,a1,s5
800017e8:	120a1463          	bnez	s4,80001910 <__moddi3+0x41c>
800017ec:	0096e463          	bltu	a3,s1,800017f4 <__moddi3+0x300>
800017f0:	00c46a63          	bltu	s0,a2,80001804 <__moddi3+0x310>
800017f4:	40c40533          	sub	a0,s0,a2
800017f8:	40d486b3          	sub	a3,s1,a3
800017fc:	00a43433          	sltu	s0,s0,a0
80001800:	408684b3          	sub	s1,a3,s0
80001804:	00048593          	mv	a1,s1
80001808:	e5dff06f          	j	80001664 <__moddi3+0x170>
8000180c:	0ff00793          	li	a5,255
80001810:	2ed7f063          	bgeu	a5,a3,80001af0 <__moddi3+0x5fc>
80001814:	0086d593          	srli	a1,a3,0x8
80001818:	00800713          	li	a4,8
8000181c:	fb1ff06f          	j	800017cc <__moddi3+0x2d8>
80001820:	0ff00793          	li	a5,255
80001824:	00098713          	mv	a4,s3
80001828:	ed37f8e3          	bgeu	a5,s3,800016f8 <__moddi3+0x204>
8000182c:	0089d713          	srli	a4,s3,0x8
80001830:	00800a13          	li	s4,8
80001834:	ec5ff06f          	j	800016f8 <__moddi3+0x204>
80001838:	010007b7          	lui	a5,0x1000
8000183c:	2af66463          	bltu	a2,a5,80001ae4 <__moddi3+0x5f0>
80001840:	01865713          	srli	a4,a2,0x18
80001844:	01800a13          	li	s4,24
80001848:	d3dff06f          	j	80001584 <__moddi3+0x90>
8000184c:	014999b3          	sll	s3,s3,s4
80001850:	00f4dcb3          	srl	s9,s1,a5
80001854:	0109db93          	srli	s7,s3,0x10
80001858:	00f457b3          	srl	a5,s0,a5
8000185c:	000b8593          	mv	a1,s7
80001860:	014494b3          	sll	s1,s1,s4
80001864:	000c8513          	mv	a0,s9
80001868:	0097eb33          	or	s6,a5,s1
8000186c:	018020ef          	jal	ra,80003884 <__umodsi3>
80001870:	00050a93          	mv	s5,a0
80001874:	000b8593          	mv	a1,s7
80001878:	01099c13          	slli	s8,s3,0x10
8000187c:	000c8513          	mv	a0,s9
80001880:	7bd010ef          	jal	ra,8000383c <__udivsi3>
80001884:	010c5c13          	srli	s8,s8,0x10
80001888:	00050593          	mv	a1,a0
8000188c:	000c0513          	mv	a0,s8
80001890:	781010ef          	jal	ra,80003810 <__mulsi3>
80001894:	010a9a93          	slli	s5,s5,0x10
80001898:	010b5793          	srli	a5,s6,0x10
8000189c:	00fae7b3          	or	a5,s5,a5
800018a0:	01441ab3          	sll	s5,s0,s4
800018a4:	00a7fa63          	bgeu	a5,a0,800018b8 <__moddi3+0x3c4>
800018a8:	013787b3          	add	a5,a5,s3
800018ac:	0137e663          	bltu	a5,s3,800018b8 <__moddi3+0x3c4>
800018b0:	00a7f463          	bgeu	a5,a0,800018b8 <__moddi3+0x3c4>
800018b4:	013787b3          	add	a5,a5,s3
800018b8:	40a784b3          	sub	s1,a5,a0
800018bc:	000b8593          	mv	a1,s7
800018c0:	00048513          	mv	a0,s1
800018c4:	7c1010ef          	jal	ra,80003884 <__umodsi3>
800018c8:	00050413          	mv	s0,a0
800018cc:	000b8593          	mv	a1,s7
800018d0:	00048513          	mv	a0,s1
800018d4:	769010ef          	jal	ra,8000383c <__udivsi3>
800018d8:	010b1b13          	slli	s6,s6,0x10
800018dc:	00050593          	mv	a1,a0
800018e0:	01041493          	slli	s1,s0,0x10
800018e4:	000c0513          	mv	a0,s8
800018e8:	010b5b13          	srli	s6,s6,0x10
800018ec:	725010ef          	jal	ra,80003810 <__mulsi3>
800018f0:	0164e4b3          	or	s1,s1,s6
800018f4:	00a4fa63          	bgeu	s1,a0,80001908 <__moddi3+0x414>
800018f8:	013484b3          	add	s1,s1,s3
800018fc:	0134e663          	bltu	s1,s3,80001908 <__moddi3+0x414>
80001900:	00a4f463          	bgeu	s1,a0,80001908 <__moddi3+0x414>
80001904:	013484b3          	add	s1,s1,s3
80001908:	40a484b3          	sub	s1,s1,a0
8000190c:	e1dff06f          	j	80001728 <__moddi3+0x234>
80001910:	015657b3          	srl	a5,a2,s5
80001914:	014696b3          	sll	a3,a3,s4
80001918:	00d7ebb3          	or	s7,a5,a3
8000191c:	0154db33          	srl	s6,s1,s5
80001920:	010bdc13          	srli	s8,s7,0x10
80001924:	015457b3          	srl	a5,s0,s5
80001928:	000c0593          	mv	a1,s8
8000192c:	000b0513          	mv	a0,s6
80001930:	014494b3          	sll	s1,s1,s4
80001934:	0097e4b3          	or	s1,a5,s1
80001938:	014619b3          	sll	s3,a2,s4
8000193c:	749010ef          	jal	ra,80003884 <__umodsi3>
80001940:	00050d13          	mv	s10,a0
80001944:	000c0593          	mv	a1,s8
80001948:	000b0513          	mv	a0,s6
8000194c:	010b9c93          	slli	s9,s7,0x10
80001950:	6ed010ef          	jal	ra,8000383c <__udivsi3>
80001954:	010cdc93          	srli	s9,s9,0x10
80001958:	00050593          	mv	a1,a0
8000195c:	00050b13          	mv	s6,a0
80001960:	000c8513          	mv	a0,s9
80001964:	6ad010ef          	jal	ra,80003810 <__mulsi3>
80001968:	010d1d13          	slli	s10,s10,0x10
8000196c:	0104d713          	srli	a4,s1,0x10
80001970:	00ed6733          	or	a4,s10,a4
80001974:	01441433          	sll	s0,s0,s4
80001978:	00a77e63          	bgeu	a4,a0,80001994 <__moddi3+0x4a0>
8000197c:	01770733          	add	a4,a4,s7
80001980:	fffb0793          	addi	a5,s6,-1
80001984:	19776063          	bltu	a4,s7,80001b04 <__moddi3+0x610>
80001988:	16a77e63          	bgeu	a4,a0,80001b04 <__moddi3+0x610>
8000198c:	ffeb0b13          	addi	s6,s6,-2
80001990:	01770733          	add	a4,a4,s7
80001994:	40a70d33          	sub	s10,a4,a0
80001998:	000c0593          	mv	a1,s8
8000199c:	000d0513          	mv	a0,s10
800019a0:	6e5010ef          	jal	ra,80003884 <__umodsi3>
800019a4:	000c0593          	mv	a1,s8
800019a8:	00050d93          	mv	s11,a0
800019ac:	000d0513          	mv	a0,s10
800019b0:	68d010ef          	jal	ra,8000383c <__udivsi3>
800019b4:	01049493          	slli	s1,s1,0x10
800019b8:	00050593          	mv	a1,a0
800019bc:	00050c13          	mv	s8,a0
800019c0:	010d9d93          	slli	s11,s11,0x10
800019c4:	000c8513          	mv	a0,s9
800019c8:	0104d493          	srli	s1,s1,0x10
800019cc:	645010ef          	jal	ra,80003810 <__mulsi3>
800019d0:	009de4b3          	or	s1,s11,s1
800019d4:	00a4fe63          	bgeu	s1,a0,800019f0 <__moddi3+0x4fc>
800019d8:	017484b3          	add	s1,s1,s7
800019dc:	fffc0793          	addi	a5,s8,-1
800019e0:	1174ee63          	bltu	s1,s7,80001afc <__moddi3+0x608>
800019e4:	10a4fc63          	bgeu	s1,a0,80001afc <__moddi3+0x608>
800019e8:	ffec0c13          	addi	s8,s8,-2
800019ec:	017484b3          	add	s1,s1,s7
800019f0:	00010337          	lui	t1,0x10
800019f4:	010b1b13          	slli	s6,s6,0x10
800019f8:	018b6b33          	or	s6,s6,s8
800019fc:	fff30713          	addi	a4,t1,-1 # ffff <_tbss_end+0xffff>
80001a00:	00eb77b3          	and	a5,s6,a4
80001a04:	00e9f733          	and	a4,s3,a4
80001a08:	40a484b3          	sub	s1,s1,a0
80001a0c:	010b5b13          	srli	s6,s6,0x10
80001a10:	0109d893          	srli	a7,s3,0x10
80001a14:	00078513          	mv	a0,a5
80001a18:	00070593          	mv	a1,a4
80001a1c:	5f5010ef          	jal	ra,80003810 <__mulsi3>
80001a20:	00050813          	mv	a6,a0
80001a24:	00088593          	mv	a1,a7
80001a28:	00078513          	mv	a0,a5
80001a2c:	5e5010ef          	jal	ra,80003810 <__mulsi3>
80001a30:	00050793          	mv	a5,a0
80001a34:	00070593          	mv	a1,a4
80001a38:	000b0513          	mv	a0,s6
80001a3c:	5d5010ef          	jal	ra,80003810 <__mulsi3>
80001a40:	00050713          	mv	a4,a0
80001a44:	00088593          	mv	a1,a7
80001a48:	000b0513          	mv	a0,s6
80001a4c:	5c5010ef          	jal	ra,80003810 <__mulsi3>
80001a50:	00e787b3          	add	a5,a5,a4
80001a54:	01085693          	srli	a3,a6,0x10
80001a58:	00d787b3          	add	a5,a5,a3
80001a5c:	00e7f463          	bgeu	a5,a4,80001a64 <__moddi3+0x570>
80001a60:	00650533          	add	a0,a0,t1
80001a64:	00010737          	lui	a4,0x10
80001a68:	fff70713          	addi	a4,a4,-1 # ffff <_tbss_end+0xffff>
80001a6c:	0107d593          	srli	a1,a5,0x10
80001a70:	00e7f7b3          	and	a5,a5,a4
80001a74:	01079793          	slli	a5,a5,0x10
80001a78:	00e87833          	and	a6,a6,a4
80001a7c:	00a585b3          	add	a1,a1,a0
80001a80:	010787b3          	add	a5,a5,a6
80001a84:	02b4e863          	bltu	s1,a1,80001ab4 <__moddi3+0x5c0>
80001a88:	02b48463          	beq	s1,a1,80001ab0 <__moddi3+0x5bc>
80001a8c:	40f407b3          	sub	a5,s0,a5
80001a90:	40b485b3          	sub	a1,s1,a1
80001a94:	00f43433          	sltu	s0,s0,a5
80001a98:	408584b3          	sub	s1,a1,s0
80001a9c:	01549533          	sll	a0,s1,s5
80001aa0:	0147d7b3          	srl	a5,a5,s4
80001aa4:	00f56533          	or	a0,a0,a5
80001aa8:	0144d5b3          	srl	a1,s1,s4
80001aac:	bb9ff06f          	j	80001664 <__moddi3+0x170>
80001ab0:	fcf47ee3          	bgeu	s0,a5,80001a8c <__moddi3+0x598>
80001ab4:	413789b3          	sub	s3,a5,s3
80001ab8:	0137b7b3          	sltu	a5,a5,s3
80001abc:	017787b3          	add	a5,a5,s7
80001ac0:	40f585b3          	sub	a1,a1,a5
80001ac4:	00098793          	mv	a5,s3
80001ac8:	fc5ff06f          	j	80001a8c <__moddi3+0x598>
80001acc:	0109d713          	srli	a4,s3,0x10
80001ad0:	01000a13          	li	s4,16
80001ad4:	c25ff06f          	j	800016f8 <__moddi3+0x204>
80001ad8:	0106d593          	srli	a1,a3,0x10
80001adc:	01000713          	li	a4,16
80001ae0:	cedff06f          	j	800017cc <__moddi3+0x2d8>
80001ae4:	01065713          	srli	a4,a2,0x10
80001ae8:	01000a13          	li	s4,16
80001aec:	a99ff06f          	j	80001584 <__moddi3+0x90>
80001af0:	00068593          	mv	a1,a3
80001af4:	00000713          	li	a4,0
80001af8:	cd5ff06f          	j	800017cc <__moddi3+0x2d8>
80001afc:	00078c13          	mv	s8,a5
80001b00:	ef1ff06f          	j	800019f0 <__moddi3+0x4fc>
80001b04:	00078b13          	mv	s6,a5
80001b08:	e8dff06f          	j	80001994 <__moddi3+0x4a0>
80001b0c:	013787b3          	add	a5,a5,s3
80001b10:	af9ff06f          	j	80001608 <__moddi3+0x114>

80001b14 <__udivdi3>:
80001b14:	fd010113          	addi	sp,sp,-48
80001b18:	02812423          	sw	s0,40(sp)
80001b1c:	01412c23          	sw	s4,24(sp)
80001b20:	02112623          	sw	ra,44(sp)
80001b24:	02912223          	sw	s1,36(sp)
80001b28:	03212023          	sw	s2,32(sp)
80001b2c:	01312e23          	sw	s3,28(sp)
80001b30:	01512a23          	sw	s5,20(sp)
80001b34:	01612823          	sw	s6,16(sp)
80001b38:	01712623          	sw	s7,12(sp)
80001b3c:	01812423          	sw	s8,8(sp)
80001b40:	01912223          	sw	s9,4(sp)
80001b44:	00050a13          	mv	s4,a0
80001b48:	00058413          	mv	s0,a1
80001b4c:	22069e63          	bnez	a3,80001d88 <__udivdi3+0x274>
80001b50:	00068993          	mv	s3,a3
80001b54:	00060493          	mv	s1,a2
80001b58:	00050913          	mv	s2,a0
80001b5c:	10c5fe63          	bgeu	a1,a2,80001c78 <__udivdi3+0x164>
80001b60:	000107b7          	lui	a5,0x10
80001b64:	00058a93          	mv	s5,a1
80001b68:	2cf66e63          	bltu	a2,a5,80001e44 <__udivdi3+0x330>
80001b6c:	010007b7          	lui	a5,0x1000
80001b70:	56f66a63          	bltu	a2,a5,800020e4 <__udivdi3+0x5d0>
80001b74:	01865713          	srli	a4,a2,0x18
80001b78:	01800993          	li	s3,24
80001b7c:	00002797          	auipc	a5,0x2
80001b80:	7107a783          	lw	a5,1808(a5) # 8000428c <_GLOBAL_OFFSET_TABLE_+0x4>
80001b84:	00e787b3          	add	a5,a5,a4
80001b88:	0007c783          	lbu	a5,0(a5)
80001b8c:	013789b3          	add	s3,a5,s3
80001b90:	02000793          	li	a5,32
80001b94:	413787b3          	sub	a5,a5,s3
80001b98:	00078c63          	beqz	a5,80001bb0 <__udivdi3+0x9c>
80001b9c:	00f41433          	sll	s0,s0,a5
80001ba0:	013a59b3          	srl	s3,s4,s3
80001ba4:	00f614b3          	sll	s1,a2,a5
80001ba8:	0089eab3          	or	s5,s3,s0
80001bac:	00fa1933          	sll	s2,s4,a5
80001bb0:	0104db13          	srli	s6,s1,0x10
80001bb4:	000b0593          	mv	a1,s6
80001bb8:	000a8513          	mv	a0,s5
80001bbc:	4c9010ef          	jal	ra,80003884 <__umodsi3>
80001bc0:	00050a13          	mv	s4,a0
80001bc4:	000b0593          	mv	a1,s6
80001bc8:	000a8513          	mv	a0,s5
80001bcc:	01049a93          	slli	s5,s1,0x10
80001bd0:	46d010ef          	jal	ra,8000383c <__udivsi3>
80001bd4:	010ada93          	srli	s5,s5,0x10
80001bd8:	00050593          	mv	a1,a0
80001bdc:	00050413          	mv	s0,a0
80001be0:	000a8513          	mv	a0,s5
80001be4:	42d010ef          	jal	ra,80003810 <__mulsi3>
80001be8:	010a1a13          	slli	s4,s4,0x10
80001bec:	01095793          	srli	a5,s2,0x10
80001bf0:	00fa67b3          	or	a5,s4,a5
80001bf4:	00a7fc63          	bgeu	a5,a0,80001c0c <__udivdi3+0xf8>
80001bf8:	009787b3          	add	a5,a5,s1
80001bfc:	fff40713          	addi	a4,s0,-1
80001c00:	0097e463          	bltu	a5,s1,80001c08 <__udivdi3+0xf4>
80001c04:	52a7e863          	bltu	a5,a0,80002134 <__udivdi3+0x620>
80001c08:	00070413          	mv	s0,a4
80001c0c:	40a789b3          	sub	s3,a5,a0
80001c10:	000b0593          	mv	a1,s6
80001c14:	00098513          	mv	a0,s3
80001c18:	46d010ef          	jal	ra,80003884 <__umodsi3>
80001c1c:	00050a13          	mv	s4,a0
80001c20:	000b0593          	mv	a1,s6
80001c24:	00098513          	mv	a0,s3
80001c28:	415010ef          	jal	ra,8000383c <__udivsi3>
80001c2c:	01091913          	slli	s2,s2,0x10
80001c30:	00050593          	mv	a1,a0
80001c34:	00050993          	mv	s3,a0
80001c38:	010a1a13          	slli	s4,s4,0x10
80001c3c:	000a8513          	mv	a0,s5
80001c40:	01095913          	srli	s2,s2,0x10
80001c44:	3cd010ef          	jal	ra,80003810 <__mulsi3>
80001c48:	012a6933          	or	s2,s4,s2
80001c4c:	00a97e63          	bgeu	s2,a0,80001c68 <__udivdi3+0x154>
80001c50:	01248933          	add	s2,s1,s2
80001c54:	fff98793          	addi	a5,s3,-1
80001c58:	00996663          	bltu	s2,s1,80001c64 <__udivdi3+0x150>
80001c5c:	ffe98993          	addi	s3,s3,-2
80001c60:	00a96463          	bltu	s2,a0,80001c68 <__udivdi3+0x154>
80001c64:	00078993          	mv	s3,a5
80001c68:	01041513          	slli	a0,s0,0x10
80001c6c:	01356533          	or	a0,a0,s3
80001c70:	00000c13          	li	s8,0
80001c74:	16c0006f          	j	80001de0 <__udivdi3+0x2cc>
80001c78:	00061a63          	bnez	a2,80001c8c <__udivdi3+0x178>
80001c7c:	00000593          	li	a1,0
80001c80:	00100513          	li	a0,1
80001c84:	3b9010ef          	jal	ra,8000383c <__udivsi3>
80001c88:	00050493          	mv	s1,a0
80001c8c:	000107b7          	lui	a5,0x10
80001c90:	18f4ee63          	bltu	s1,a5,80001e2c <__udivdi3+0x318>
80001c94:	010007b7          	lui	a5,0x1000
80001c98:	44f4ec63          	bltu	s1,a5,800020f0 <__udivdi3+0x5dc>
80001c9c:	0184d713          	srli	a4,s1,0x18
80001ca0:	01800993          	li	s3,24
80001ca4:	00002797          	auipc	a5,0x2
80001ca8:	5e87a783          	lw	a5,1512(a5) # 8000428c <_GLOBAL_OFFSET_TABLE_+0x4>
80001cac:	00e787b3          	add	a5,a5,a4
80001cb0:	0007c783          	lbu	a5,0(a5)
80001cb4:	013789b3          	add	s3,a5,s3
80001cb8:	02000793          	li	a5,32
80001cbc:	413787b3          	sub	a5,a5,s3
80001cc0:	18079e63          	bnez	a5,80001e5c <__udivdi3+0x348>
80001cc4:	01049b93          	slli	s7,s1,0x10
80001cc8:	40940433          	sub	s0,s0,s1
80001ccc:	0104db13          	srli	s6,s1,0x10
80001cd0:	010bdb93          	srli	s7,s7,0x10
80001cd4:	00100c13          	li	s8,1
80001cd8:	000b0593          	mv	a1,s6
80001cdc:	00040513          	mv	a0,s0
80001ce0:	3a5010ef          	jal	ra,80003884 <__umodsi3>
80001ce4:	00050a13          	mv	s4,a0
80001ce8:	000b0593          	mv	a1,s6
80001cec:	00040513          	mv	a0,s0
80001cf0:	34d010ef          	jal	ra,8000383c <__udivsi3>
80001cf4:	000b8593          	mv	a1,s7
80001cf8:	00050413          	mv	s0,a0
80001cfc:	315010ef          	jal	ra,80003810 <__mulsi3>
80001d00:	010a1a13          	slli	s4,s4,0x10
80001d04:	01095793          	srli	a5,s2,0x10
80001d08:	00fa67b3          	or	a5,s4,a5
80001d0c:	00a7fc63          	bgeu	a5,a0,80001d24 <__udivdi3+0x210>
80001d10:	009787b3          	add	a5,a5,s1
80001d14:	fff40713          	addi	a4,s0,-1
80001d18:	0097e463          	bltu	a5,s1,80001d20 <__udivdi3+0x20c>
80001d1c:	42a7e263          	bltu	a5,a0,80002140 <__udivdi3+0x62c>
80001d20:	00070413          	mv	s0,a4
80001d24:	40a789b3          	sub	s3,a5,a0
80001d28:	000b0593          	mv	a1,s6
80001d2c:	00098513          	mv	a0,s3
80001d30:	355010ef          	jal	ra,80003884 <__umodsi3>
80001d34:	00050a13          	mv	s4,a0
80001d38:	000b0593          	mv	a1,s6
80001d3c:	00098513          	mv	a0,s3
80001d40:	2fd010ef          	jal	ra,8000383c <__udivsi3>
80001d44:	01091913          	slli	s2,s2,0x10
80001d48:	000b8593          	mv	a1,s7
80001d4c:	010a1a13          	slli	s4,s4,0x10
80001d50:	01095913          	srli	s2,s2,0x10
80001d54:	00050993          	mv	s3,a0
80001d58:	012a6933          	or	s2,s4,s2
80001d5c:	2b5010ef          	jal	ra,80003810 <__mulsi3>
80001d60:	00a97e63          	bgeu	s2,a0,80001d7c <__udivdi3+0x268>
80001d64:	01248933          	add	s2,s1,s2
80001d68:	fff98793          	addi	a5,s3,-1
80001d6c:	00996663          	bltu	s2,s1,80001d78 <__udivdi3+0x264>
80001d70:	ffe98993          	addi	s3,s3,-2
80001d74:	00a96463          	bltu	s2,a0,80001d7c <__udivdi3+0x268>
80001d78:	00078993          	mv	s3,a5
80001d7c:	01041513          	slli	a0,s0,0x10
80001d80:	01356533          	or	a0,a0,s3
80001d84:	05c0006f          	j	80001de0 <__udivdi3+0x2cc>
80001d88:	04d5e863          	bltu	a1,a3,80001dd8 <__udivdi3+0x2c4>
80001d8c:	000107b7          	lui	a5,0x10
80001d90:	08f6e463          	bltu	a3,a5,80001e18 <__udivdi3+0x304>
80001d94:	010007b7          	lui	a5,0x1000
80001d98:	34f6e063          	bltu	a3,a5,800020d8 <__udivdi3+0x5c4>
80001d9c:	0186d793          	srli	a5,a3,0x18
80001da0:	01800593          	li	a1,24
80001da4:	00002717          	auipc	a4,0x2
80001da8:	4e872703          	lw	a4,1256(a4) # 8000428c <_GLOBAL_OFFSET_TABLE_+0x4>
80001dac:	00f70733          	add	a4,a4,a5
80001db0:	00074783          	lbu	a5,0(a4)
80001db4:	02000b13          	li	s6,32
80001db8:	00b787b3          	add	a5,a5,a1
80001dbc:	40fb0b33          	sub	s6,s6,a5
80001dc0:	180b1063          	bnez	s6,80001f40 <__udivdi3+0x42c>
80001dc4:	3286ec63          	bltu	a3,s0,800020fc <__udivdi3+0x5e8>
80001dc8:	00ca3633          	sltu	a2,s4,a2
80001dcc:	00164513          	xori	a0,a2,1
80001dd0:	00000c13          	li	s8,0
80001dd4:	00c0006f          	j	80001de0 <__udivdi3+0x2cc>
80001dd8:	00000c13          	li	s8,0
80001ddc:	00000513          	li	a0,0
80001de0:	000c0593          	mv	a1,s8
80001de4:	02c12083          	lw	ra,44(sp)
80001de8:	02812403          	lw	s0,40(sp)
80001dec:	02412483          	lw	s1,36(sp)
80001df0:	02012903          	lw	s2,32(sp)
80001df4:	01c12983          	lw	s3,28(sp)
80001df8:	01812a03          	lw	s4,24(sp)
80001dfc:	01412a83          	lw	s5,20(sp)
80001e00:	01012b03          	lw	s6,16(sp)
80001e04:	00c12b83          	lw	s7,12(sp)
80001e08:	00812c03          	lw	s8,8(sp)
80001e0c:	00412c83          	lw	s9,4(sp)
80001e10:	03010113          	addi	sp,sp,48
80001e14:	00008067          	ret
80001e18:	0ff00793          	li	a5,255
80001e1c:	2ed7f663          	bgeu	a5,a3,80002108 <__udivdi3+0x5f4>
80001e20:	0086d793          	srli	a5,a3,0x8
80001e24:	00800593          	li	a1,8
80001e28:	f7dff06f          	j	80001da4 <__udivdi3+0x290>
80001e2c:	0ff00793          	li	a5,255
80001e30:	00048713          	mv	a4,s1
80001e34:	e697f8e3          	bgeu	a5,s1,80001ca4 <__udivdi3+0x190>
80001e38:	0084d713          	srli	a4,s1,0x8
80001e3c:	00800993          	li	s3,8
80001e40:	e65ff06f          	j	80001ca4 <__udivdi3+0x190>
80001e44:	0ff00793          	li	a5,255
80001e48:	00060713          	mv	a4,a2
80001e4c:	d2c7f8e3          	bgeu	a5,a2,80001b7c <__udivdi3+0x68>
80001e50:	00865713          	srli	a4,a2,0x8
80001e54:	00800993          	li	s3,8
80001e58:	d25ff06f          	j	80001b7c <__udivdi3+0x68>
80001e5c:	00f494b3          	sll	s1,s1,a5
80001e60:	01345c33          	srl	s8,s0,s3
80001e64:	0104db13          	srli	s6,s1,0x10
80001e68:	000b0593          	mv	a1,s6
80001e6c:	000c0513          	mv	a0,s8
80001e70:	00f41433          	sll	s0,s0,a5
80001e74:	00fa1933          	sll	s2,s4,a5
80001e78:	013a59b3          	srl	s3,s4,s3
80001e7c:	209010ef          	jal	ra,80003884 <__umodsi3>
80001e80:	0089eab3          	or	s5,s3,s0
80001e84:	000b0593          	mv	a1,s6
80001e88:	00050993          	mv	s3,a0
80001e8c:	01049b93          	slli	s7,s1,0x10
80001e90:	000c0513          	mv	a0,s8
80001e94:	1a9010ef          	jal	ra,8000383c <__udivsi3>
80001e98:	010bdb93          	srli	s7,s7,0x10
80001e9c:	00050593          	mv	a1,a0
80001ea0:	00050a13          	mv	s4,a0
80001ea4:	000b8513          	mv	a0,s7
80001ea8:	169010ef          	jal	ra,80003810 <__mulsi3>
80001eac:	01099993          	slli	s3,s3,0x10
80001eb0:	010ad793          	srli	a5,s5,0x10
80001eb4:	00f9e7b3          	or	a5,s3,a5
80001eb8:	00a7fe63          	bgeu	a5,a0,80001ed4 <__udivdi3+0x3c0>
80001ebc:	009787b3          	add	a5,a5,s1
80001ec0:	fffa0713          	addi	a4,s4,-1
80001ec4:	2697e463          	bltu	a5,s1,8000212c <__udivdi3+0x618>
80001ec8:	26a7f263          	bgeu	a5,a0,8000212c <__udivdi3+0x618>
80001ecc:	ffea0a13          	addi	s4,s4,-2
80001ed0:	009787b3          	add	a5,a5,s1
80001ed4:	40a78433          	sub	s0,a5,a0
80001ed8:	000b0593          	mv	a1,s6
80001edc:	00040513          	mv	a0,s0
80001ee0:	1a5010ef          	jal	ra,80003884 <__umodsi3>
80001ee4:	00050993          	mv	s3,a0
80001ee8:	000b0593          	mv	a1,s6
80001eec:	00040513          	mv	a0,s0
80001ef0:	14d010ef          	jal	ra,8000383c <__udivsi3>
80001ef4:	010a9a93          	slli	s5,s5,0x10
80001ef8:	00050593          	mv	a1,a0
80001efc:	00050c13          	mv	s8,a0
80001f00:	01099413          	slli	s0,s3,0x10
80001f04:	000b8513          	mv	a0,s7
80001f08:	010ada93          	srli	s5,s5,0x10
80001f0c:	105010ef          	jal	ra,80003810 <__mulsi3>
80001f10:	01546433          	or	s0,s0,s5
80001f14:	00a47e63          	bgeu	s0,a0,80001f30 <__udivdi3+0x41c>
80001f18:	00940433          	add	s0,s0,s1
80001f1c:	fffc0793          	addi	a5,s8,-1
80001f20:	1e946e63          	bltu	s0,s1,8000211c <__udivdi3+0x608>
80001f24:	1ea47c63          	bgeu	s0,a0,8000211c <__udivdi3+0x608>
80001f28:	ffec0c13          	addi	s8,s8,-2
80001f2c:	00940433          	add	s0,s0,s1
80001f30:	010a1a13          	slli	s4,s4,0x10
80001f34:	40a40433          	sub	s0,s0,a0
80001f38:	018a6c33          	or	s8,s4,s8
80001f3c:	d9dff06f          	j	80001cd8 <__udivdi3+0x1c4>
80001f40:	00f65bb3          	srl	s7,a2,a5
80001f44:	016696b3          	sll	a3,a3,s6
80001f48:	00dbebb3          	or	s7,s7,a3
80001f4c:	00f454b3          	srl	s1,s0,a5
80001f50:	010bd993          	srli	s3,s7,0x10
80001f54:	00fa57b3          	srl	a5,s4,a5
80001f58:	00098593          	mv	a1,s3
80001f5c:	01641433          	sll	s0,s0,s6
80001f60:	00048513          	mv	a0,s1
80001f64:	0087e433          	or	s0,a5,s0
80001f68:	01661ab3          	sll	s5,a2,s6
80001f6c:	119010ef          	jal	ra,80003884 <__umodsi3>
80001f70:	00050913          	mv	s2,a0
80001f74:	00098593          	mv	a1,s3
80001f78:	010b9c13          	slli	s8,s7,0x10
80001f7c:	00048513          	mv	a0,s1
80001f80:	0bd010ef          	jal	ra,8000383c <__udivsi3>
80001f84:	010c5c13          	srli	s8,s8,0x10
80001f88:	00050593          	mv	a1,a0
80001f8c:	00050c93          	mv	s9,a0
80001f90:	000c0513          	mv	a0,s8
80001f94:	07d010ef          	jal	ra,80003810 <__mulsi3>
80001f98:	01091913          	slli	s2,s2,0x10
80001f9c:	01045793          	srli	a5,s0,0x10
80001fa0:	00f967b3          	or	a5,s2,a5
80001fa4:	00a7fe63          	bgeu	a5,a0,80001fc0 <__udivdi3+0x4ac>
80001fa8:	017787b3          	add	a5,a5,s7
80001fac:	fffc8713          	addi	a4,s9,-1
80001fb0:	1777ea63          	bltu	a5,s7,80002124 <__udivdi3+0x610>
80001fb4:	16a7f863          	bgeu	a5,a0,80002124 <__udivdi3+0x610>
80001fb8:	ffec8c93          	addi	s9,s9,-2
80001fbc:	017787b3          	add	a5,a5,s7
80001fc0:	40a784b3          	sub	s1,a5,a0
80001fc4:	00098593          	mv	a1,s3
80001fc8:	00048513          	mv	a0,s1
80001fcc:	0b9010ef          	jal	ra,80003884 <__umodsi3>
80001fd0:	00050913          	mv	s2,a0
80001fd4:	00098593          	mv	a1,s3
80001fd8:	00048513          	mv	a0,s1
80001fdc:	061010ef          	jal	ra,8000383c <__udivsi3>
80001fe0:	01041413          	slli	s0,s0,0x10
80001fe4:	00050593          	mv	a1,a0
80001fe8:	00050493          	mv	s1,a0
80001fec:	01091913          	slli	s2,s2,0x10
80001ff0:	000c0513          	mv	a0,s8
80001ff4:	01045413          	srli	s0,s0,0x10
80001ff8:	019010ef          	jal	ra,80003810 <__mulsi3>
80001ffc:	00896433          	or	s0,s2,s0
80002000:	00a47e63          	bgeu	s0,a0,8000201c <__udivdi3+0x508>
80002004:	01740433          	add	s0,s0,s7
80002008:	fff48793          	addi	a5,s1,-1
8000200c:	11746463          	bltu	s0,s7,80002114 <__udivdi3+0x600>
80002010:	10a47263          	bgeu	s0,a0,80002114 <__udivdi3+0x600>
80002014:	ffe48493          	addi	s1,s1,-2
80002018:	01740433          	add	s0,s0,s7
8000201c:	00010e37          	lui	t3,0x10
80002020:	010c9c93          	slli	s9,s9,0x10
80002024:	009cecb3          	or	s9,s9,s1
80002028:	fffe0713          	addi	a4,t3,-1 # ffff <_tbss_end+0xffff>
8000202c:	00ecf833          	and	a6,s9,a4
80002030:	00eaf733          	and	a4,s5,a4
80002034:	40a40433          	sub	s0,s0,a0
80002038:	010cd893          	srli	a7,s9,0x10
8000203c:	010ada93          	srli	s5,s5,0x10
80002040:	00080513          	mv	a0,a6
80002044:	00070593          	mv	a1,a4
80002048:	7c8010ef          	jal	ra,80003810 <__mulsi3>
8000204c:	00050313          	mv	t1,a0
80002050:	000a8593          	mv	a1,s5
80002054:	00080513          	mv	a0,a6
80002058:	7b8010ef          	jal	ra,80003810 <__mulsi3>
8000205c:	00050813          	mv	a6,a0
80002060:	00070593          	mv	a1,a4
80002064:	00088513          	mv	a0,a7
80002068:	7a8010ef          	jal	ra,80003810 <__mulsi3>
8000206c:	00050713          	mv	a4,a0
80002070:	000a8593          	mv	a1,s5
80002074:	00088513          	mv	a0,a7
80002078:	798010ef          	jal	ra,80003810 <__mulsi3>
8000207c:	01035793          	srli	a5,t1,0x10
80002080:	00e80833          	add	a6,a6,a4
80002084:	010787b3          	add	a5,a5,a6
80002088:	00e7f463          	bgeu	a5,a4,80002090 <__udivdi3+0x57c>
8000208c:	01c50533          	add	a0,a0,t3
80002090:	0107d713          	srli	a4,a5,0x10
80002094:	00a70533          	add	a0,a4,a0
80002098:	02a46a63          	bltu	s0,a0,800020cc <__udivdi3+0x5b8>
8000209c:	00a40863          	beq	s0,a0,800020ac <__udivdi3+0x598>
800020a0:	000c8513          	mv	a0,s9
800020a4:	00000c13          	li	s8,0
800020a8:	d39ff06f          	j	80001de0 <__udivdi3+0x2cc>
800020ac:	00010737          	lui	a4,0x10
800020b0:	fff70713          	addi	a4,a4,-1 # ffff <_tbss_end+0xffff>
800020b4:	00e7f7b3          	and	a5,a5,a4
800020b8:	01079793          	slli	a5,a5,0x10
800020bc:	00e37333          	and	t1,t1,a4
800020c0:	016a1633          	sll	a2,s4,s6
800020c4:	006787b3          	add	a5,a5,t1
800020c8:	fcf67ce3          	bgeu	a2,a5,800020a0 <__udivdi3+0x58c>
800020cc:	fffc8513          	addi	a0,s9,-1
800020d0:	00000c13          	li	s8,0
800020d4:	d0dff06f          	j	80001de0 <__udivdi3+0x2cc>
800020d8:	0106d793          	srli	a5,a3,0x10
800020dc:	01000593          	li	a1,16
800020e0:	cc5ff06f          	j	80001da4 <__udivdi3+0x290>
800020e4:	01065713          	srli	a4,a2,0x10
800020e8:	01000993          	li	s3,16
800020ec:	a91ff06f          	j	80001b7c <__udivdi3+0x68>
800020f0:	0104d713          	srli	a4,s1,0x10
800020f4:	01000993          	li	s3,16
800020f8:	badff06f          	j	80001ca4 <__udivdi3+0x190>
800020fc:	00000c13          	li	s8,0
80002100:	00100513          	li	a0,1
80002104:	cddff06f          	j	80001de0 <__udivdi3+0x2cc>
80002108:	00068793          	mv	a5,a3
8000210c:	00000593          	li	a1,0
80002110:	c95ff06f          	j	80001da4 <__udivdi3+0x290>
80002114:	00078493          	mv	s1,a5
80002118:	f05ff06f          	j	8000201c <__udivdi3+0x508>
8000211c:	00078c13          	mv	s8,a5
80002120:	e11ff06f          	j	80001f30 <__udivdi3+0x41c>
80002124:	00070c93          	mv	s9,a4
80002128:	e99ff06f          	j	80001fc0 <__udivdi3+0x4ac>
8000212c:	00070a13          	mv	s4,a4
80002130:	da5ff06f          	j	80001ed4 <__udivdi3+0x3c0>
80002134:	ffe40413          	addi	s0,s0,-2
80002138:	009787b3          	add	a5,a5,s1
8000213c:	ad1ff06f          	j	80001c0c <__udivdi3+0xf8>
80002140:	ffe40413          	addi	s0,s0,-2
80002144:	009787b3          	add	a5,a5,s1
80002148:	bddff06f          	j	80001d24 <__udivdi3+0x210>

8000214c <__umoddi3>:
8000214c:	fd010113          	addi	sp,sp,-48
80002150:	02812423          	sw	s0,40(sp)
80002154:	02912223          	sw	s1,36(sp)
80002158:	02112623          	sw	ra,44(sp)
8000215c:	03212023          	sw	s2,32(sp)
80002160:	01312e23          	sw	s3,28(sp)
80002164:	01412c23          	sw	s4,24(sp)
80002168:	01512a23          	sw	s5,20(sp)
8000216c:	01612823          	sw	s6,16(sp)
80002170:	01712623          	sw	s7,12(sp)
80002174:	01812423          	sw	s8,8(sp)
80002178:	01912223          	sw	s9,4(sp)
8000217c:	01a12023          	sw	s10,0(sp)
80002180:	00058493          	mv	s1,a1
80002184:	00050413          	mv	s0,a0
80002188:	22069663          	bnez	a3,800023b4 <__umoddi3+0x268>
8000218c:	00068913          	mv	s2,a3
80002190:	00060b13          	mv	s6,a2
80002194:	00050993          	mv	s3,a0
80002198:	12c5fe63          	bgeu	a1,a2,800022d4 <__umoddi3+0x188>
8000219c:	000107b7          	lui	a5,0x10
800021a0:	00058a93          	mv	s5,a1
800021a4:	28f67a63          	bgeu	a2,a5,80002438 <__umoddi3+0x2ec>
800021a8:	0ff00793          	li	a5,255
800021ac:	00060713          	mv	a4,a2
800021b0:	00c7f663          	bgeu	a5,a2,800021bc <__umoddi3+0x70>
800021b4:	00865713          	srli	a4,a2,0x8
800021b8:	00800913          	li	s2,8
800021bc:	00002797          	auipc	a5,0x2
800021c0:	0d07a783          	lw	a5,208(a5) # 8000428c <_GLOBAL_OFFSET_TABLE_+0x4>
800021c4:	00e787b3          	add	a5,a5,a4
800021c8:	0007c783          	lbu	a5,0(a5)
800021cc:	02000513          	li	a0,32
800021d0:	012787b3          	add	a5,a5,s2
800021d4:	40f50933          	sub	s2,a0,a5
800021d8:	00090c63          	beqz	s2,800021f0 <__umoddi3+0xa4>
800021dc:	012494b3          	sll	s1,s1,s2
800021e0:	00f45ab3          	srl	s5,s0,a5
800021e4:	01261b33          	sll	s6,a2,s2
800021e8:	009aeab3          	or	s5,s5,s1
800021ec:	012419b3          	sll	s3,s0,s2
800021f0:	010b5b93          	srli	s7,s6,0x10
800021f4:	000b8593          	mv	a1,s7
800021f8:	000a8513          	mv	a0,s5
800021fc:	688010ef          	jal	ra,80003884 <__umodsi3>
80002200:	00050a13          	mv	s4,a0
80002204:	000b8593          	mv	a1,s7
80002208:	000a8513          	mv	a0,s5
8000220c:	010b1a93          	slli	s5,s6,0x10
80002210:	62c010ef          	jal	ra,8000383c <__udivsi3>
80002214:	010ada93          	srli	s5,s5,0x10
80002218:	00050593          	mv	a1,a0
8000221c:	000a8513          	mv	a0,s5
80002220:	5f0010ef          	jal	ra,80003810 <__mulsi3>
80002224:	010a1a13          	slli	s4,s4,0x10
80002228:	0109d793          	srli	a5,s3,0x10
8000222c:	00fa67b3          	or	a5,s4,a5
80002230:	00a7f863          	bgeu	a5,a0,80002240 <__umoddi3+0xf4>
80002234:	016787b3          	add	a5,a5,s6
80002238:	0167e463          	bltu	a5,s6,80002240 <__umoddi3+0xf4>
8000223c:	4ca7e863          	bltu	a5,a0,8000270c <__umoddi3+0x5c0>
80002240:	40a78433          	sub	s0,a5,a0
80002244:	000b8593          	mv	a1,s7
80002248:	00040513          	mv	a0,s0
8000224c:	638010ef          	jal	ra,80003884 <__umodsi3>
80002250:	00050493          	mv	s1,a0
80002254:	000b8593          	mv	a1,s7
80002258:	00040513          	mv	a0,s0
8000225c:	5e0010ef          	jal	ra,8000383c <__udivsi3>
80002260:	00050593          	mv	a1,a0
80002264:	000a8513          	mv	a0,s5
80002268:	5a8010ef          	jal	ra,80003810 <__mulsi3>
8000226c:	01099793          	slli	a5,s3,0x10
80002270:	01049493          	slli	s1,s1,0x10
80002274:	0107d793          	srli	a5,a5,0x10
80002278:	00f4e7b3          	or	a5,s1,a5
8000227c:	00a7fa63          	bgeu	a5,a0,80002290 <__umoddi3+0x144>
80002280:	016787b3          	add	a5,a5,s6
80002284:	0167e663          	bltu	a5,s6,80002290 <__umoddi3+0x144>
80002288:	00a7f463          	bgeu	a5,a0,80002290 <__umoddi3+0x144>
8000228c:	016787b3          	add	a5,a5,s6
80002290:	40a78533          	sub	a0,a5,a0
80002294:	01255533          	srl	a0,a0,s2
80002298:	00000593          	li	a1,0
8000229c:	02c12083          	lw	ra,44(sp)
800022a0:	02812403          	lw	s0,40(sp)
800022a4:	02412483          	lw	s1,36(sp)
800022a8:	02012903          	lw	s2,32(sp)
800022ac:	01c12983          	lw	s3,28(sp)
800022b0:	01812a03          	lw	s4,24(sp)
800022b4:	01412a83          	lw	s5,20(sp)
800022b8:	01012b03          	lw	s6,16(sp)
800022bc:	00c12b83          	lw	s7,12(sp)
800022c0:	00812c03          	lw	s8,8(sp)
800022c4:	00412c83          	lw	s9,4(sp)
800022c8:	00012d03          	lw	s10,0(sp)
800022cc:	03010113          	addi	sp,sp,48
800022d0:	00008067          	ret
800022d4:	00061a63          	bnez	a2,800022e8 <__umoddi3+0x19c>
800022d8:	00000593          	li	a1,0
800022dc:	00100513          	li	a0,1
800022e0:	55c010ef          	jal	ra,8000383c <__udivsi3>
800022e4:	00050b13          	mv	s6,a0
800022e8:	000107b7          	lui	a5,0x10
800022ec:	12fb6a63          	bltu	s6,a5,80002420 <__umoddi3+0x2d4>
800022f0:	010007b7          	lui	a5,0x1000
800022f4:	3cfb6c63          	bltu	s6,a5,800026cc <__umoddi3+0x580>
800022f8:	018b5713          	srli	a4,s6,0x18
800022fc:	01800913          	li	s2,24
80002300:	00002797          	auipc	a5,0x2
80002304:	f8c7a783          	lw	a5,-116(a5) # 8000428c <_GLOBAL_OFFSET_TABLE_+0x4>
80002308:	00e787b3          	add	a5,a5,a4
8000230c:	0007c783          	lbu	a5,0(a5)
80002310:	02000513          	li	a0,32
80002314:	012787b3          	add	a5,a5,s2
80002318:	40f50933          	sub	s2,a0,a5
8000231c:	12091863          	bnez	s2,8000244c <__umoddi3+0x300>
80002320:	010b1b93          	slli	s7,s6,0x10
80002324:	416484b3          	sub	s1,s1,s6
80002328:	010b5a93          	srli	s5,s6,0x10
8000232c:	010bdb93          	srli	s7,s7,0x10
80002330:	000a8593          	mv	a1,s5
80002334:	00048513          	mv	a0,s1
80002338:	54c010ef          	jal	ra,80003884 <__umodsi3>
8000233c:	00050a13          	mv	s4,a0
80002340:	000a8593          	mv	a1,s5
80002344:	00048513          	mv	a0,s1
80002348:	4f4010ef          	jal	ra,8000383c <__udivsi3>
8000234c:	000b8593          	mv	a1,s7
80002350:	4c0010ef          	jal	ra,80003810 <__mulsi3>
80002354:	010a1a13          	slli	s4,s4,0x10
80002358:	0109d793          	srli	a5,s3,0x10
8000235c:	00fa67b3          	or	a5,s4,a5
80002360:	00a7fa63          	bgeu	a5,a0,80002374 <__umoddi3+0x228>
80002364:	016787b3          	add	a5,a5,s6
80002368:	0167e663          	bltu	a5,s6,80002374 <__umoddi3+0x228>
8000236c:	00a7f463          	bgeu	a5,a0,80002374 <__umoddi3+0x228>
80002370:	016787b3          	add	a5,a5,s6
80002374:	40a78433          	sub	s0,a5,a0
80002378:	000a8593          	mv	a1,s5
8000237c:	00040513          	mv	a0,s0
80002380:	504010ef          	jal	ra,80003884 <__umodsi3>
80002384:	00050493          	mv	s1,a0
80002388:	000a8593          	mv	a1,s5
8000238c:	00040513          	mv	a0,s0
80002390:	4ac010ef          	jal	ra,8000383c <__udivsi3>
80002394:	000b8593          	mv	a1,s7
80002398:	01099993          	slli	s3,s3,0x10
8000239c:	474010ef          	jal	ra,80003810 <__mulsi3>
800023a0:	01049493          	slli	s1,s1,0x10
800023a4:	0109d993          	srli	s3,s3,0x10
800023a8:	0134e7b3          	or	a5,s1,s3
800023ac:	eea7f2e3          	bgeu	a5,a0,80002290 <__umoddi3+0x144>
800023b0:	ed1ff06f          	j	80002280 <__umoddi3+0x134>
800023b4:	eed5e4e3          	bltu	a1,a3,8000229c <__umoddi3+0x150>
800023b8:	000107b7          	lui	a5,0x10
800023bc:	04f6e863          	bltu	a3,a5,8000240c <__umoddi3+0x2c0>
800023c0:	010007b7          	lui	a5,0x1000
800023c4:	30f6ea63          	bltu	a3,a5,800026d8 <__umoddi3+0x58c>
800023c8:	0186d813          	srli	a6,a3,0x18
800023cc:	01800713          	li	a4,24
800023d0:	00002797          	auipc	a5,0x2
800023d4:	ebc7a783          	lw	a5,-324(a5) # 8000428c <_GLOBAL_OFFSET_TABLE_+0x4>
800023d8:	010787b3          	add	a5,a5,a6
800023dc:	0007ca83          	lbu	s5,0(a5)
800023e0:	02000a13          	li	s4,32
800023e4:	00ea8ab3          	add	s5,s5,a4
800023e8:	415a0a33          	sub	s4,s4,s5
800023ec:	120a1263          	bnez	s4,80002510 <__umoddi3+0x3c4>
800023f0:	0096e463          	bltu	a3,s1,800023f8 <__umoddi3+0x2ac>
800023f4:	eac464e3          	bltu	s0,a2,8000229c <__umoddi3+0x150>
800023f8:	40c40533          	sub	a0,s0,a2
800023fc:	40d486b3          	sub	a3,s1,a3
80002400:	00a435b3          	sltu	a1,s0,a0
80002404:	40b685b3          	sub	a1,a3,a1
80002408:	e95ff06f          	j	8000229c <__umoddi3+0x150>
8000240c:	0ff00793          	li	a5,255
80002410:	2ed7f063          	bgeu	a5,a3,800026f0 <__umoddi3+0x5a4>
80002414:	0086d813          	srli	a6,a3,0x8
80002418:	00800713          	li	a4,8
8000241c:	fb5ff06f          	j	800023d0 <__umoddi3+0x284>
80002420:	0ff00793          	li	a5,255
80002424:	000b0713          	mv	a4,s6
80002428:	ed67fce3          	bgeu	a5,s6,80002300 <__umoddi3+0x1b4>
8000242c:	008b5713          	srli	a4,s6,0x8
80002430:	00800913          	li	s2,8
80002434:	ecdff06f          	j	80002300 <__umoddi3+0x1b4>
80002438:	010007b7          	lui	a5,0x1000
8000243c:	2af66463          	bltu	a2,a5,800026e4 <__umoddi3+0x598>
80002440:	01865713          	srli	a4,a2,0x18
80002444:	01800913          	li	s2,24
80002448:	d75ff06f          	j	800021bc <__umoddi3+0x70>
8000244c:	012b1b33          	sll	s6,s6,s2
80002450:	00f4dc33          	srl	s8,s1,a5
80002454:	010b5a93          	srli	s5,s6,0x10
80002458:	00f457b3          	srl	a5,s0,a5
8000245c:	000a8593          	mv	a1,s5
80002460:	012494b3          	sll	s1,s1,s2
80002464:	000c0513          	mv	a0,s8
80002468:	0097ea33          	or	s4,a5,s1
8000246c:	418010ef          	jal	ra,80003884 <__umodsi3>
80002470:	00050993          	mv	s3,a0
80002474:	000a8593          	mv	a1,s5
80002478:	010b1b93          	slli	s7,s6,0x10
8000247c:	000c0513          	mv	a0,s8
80002480:	3bc010ef          	jal	ra,8000383c <__udivsi3>
80002484:	010bdb93          	srli	s7,s7,0x10
80002488:	00050593          	mv	a1,a0
8000248c:	000b8513          	mv	a0,s7
80002490:	380010ef          	jal	ra,80003810 <__mulsi3>
80002494:	01099993          	slli	s3,s3,0x10
80002498:	010a5793          	srli	a5,s4,0x10
8000249c:	00f9e7b3          	or	a5,s3,a5
800024a0:	012419b3          	sll	s3,s0,s2
800024a4:	00a7fa63          	bgeu	a5,a0,800024b8 <__umoddi3+0x36c>
800024a8:	016787b3          	add	a5,a5,s6
800024ac:	0167e663          	bltu	a5,s6,800024b8 <__umoddi3+0x36c>
800024b0:	00a7f463          	bgeu	a5,a0,800024b8 <__umoddi3+0x36c>
800024b4:	016787b3          	add	a5,a5,s6
800024b8:	40a784b3          	sub	s1,a5,a0
800024bc:	000a8593          	mv	a1,s5
800024c0:	00048513          	mv	a0,s1
800024c4:	3c0010ef          	jal	ra,80003884 <__umodsi3>
800024c8:	00050413          	mv	s0,a0
800024cc:	000a8593          	mv	a1,s5
800024d0:	00048513          	mv	a0,s1
800024d4:	368010ef          	jal	ra,8000383c <__udivsi3>
800024d8:	010a1a13          	slli	s4,s4,0x10
800024dc:	00050593          	mv	a1,a0
800024e0:	01041493          	slli	s1,s0,0x10
800024e4:	000b8513          	mv	a0,s7
800024e8:	010a5a13          	srli	s4,s4,0x10
800024ec:	324010ef          	jal	ra,80003810 <__mulsi3>
800024f0:	0144e4b3          	or	s1,s1,s4
800024f4:	00a4fa63          	bgeu	s1,a0,80002508 <__umoddi3+0x3bc>
800024f8:	016484b3          	add	s1,s1,s6
800024fc:	0164e663          	bltu	s1,s6,80002508 <__umoddi3+0x3bc>
80002500:	00a4f463          	bgeu	s1,a0,80002508 <__umoddi3+0x3bc>
80002504:	016484b3          	add	s1,s1,s6
80002508:	40a484b3          	sub	s1,s1,a0
8000250c:	e25ff06f          	j	80002330 <__umoddi3+0x1e4>
80002510:	015657b3          	srl	a5,a2,s5
80002514:	014696b3          	sll	a3,a3,s4
80002518:	00d7ec33          	or	s8,a5,a3
8000251c:	0154d9b3          	srl	s3,s1,s5
80002520:	010c5c93          	srli	s9,s8,0x10
80002524:	015457b3          	srl	a5,s0,s5
80002528:	000c8593          	mv	a1,s9
8000252c:	00098513          	mv	a0,s3
80002530:	014494b3          	sll	s1,s1,s4
80002534:	0097e4b3          	or	s1,a5,s1
80002538:	01461933          	sll	s2,a2,s4
8000253c:	348010ef          	jal	ra,80003884 <__umodsi3>
80002540:	00050b93          	mv	s7,a0
80002544:	000c8593          	mv	a1,s9
80002548:	00098513          	mv	a0,s3
8000254c:	010c1d13          	slli	s10,s8,0x10
80002550:	2ec010ef          	jal	ra,8000383c <__udivsi3>
80002554:	010d5d13          	srli	s10,s10,0x10
80002558:	00050593          	mv	a1,a0
8000255c:	00050993          	mv	s3,a0
80002560:	000d0513          	mv	a0,s10
80002564:	2ac010ef          	jal	ra,80003810 <__mulsi3>
80002568:	010b9b93          	slli	s7,s7,0x10
8000256c:	0104d713          	srli	a4,s1,0x10
80002570:	00ebe733          	or	a4,s7,a4
80002574:	01441433          	sll	s0,s0,s4
80002578:	00a77e63          	bgeu	a4,a0,80002594 <__umoddi3+0x448>
8000257c:	01870733          	add	a4,a4,s8
80002580:	fff98793          	addi	a5,s3,-1
80002584:	19876063          	bltu	a4,s8,80002704 <__umoddi3+0x5b8>
80002588:	16a77e63          	bgeu	a4,a0,80002704 <__umoddi3+0x5b8>
8000258c:	ffe98993          	addi	s3,s3,-2
80002590:	01870733          	add	a4,a4,s8
80002594:	40a70b33          	sub	s6,a4,a0
80002598:	000c8593          	mv	a1,s9
8000259c:	000b0513          	mv	a0,s6
800025a0:	2e4010ef          	jal	ra,80003884 <__umodsi3>
800025a4:	00050b93          	mv	s7,a0
800025a8:	000c8593          	mv	a1,s9
800025ac:	000b0513          	mv	a0,s6
800025b0:	28c010ef          	jal	ra,8000383c <__udivsi3>
800025b4:	01049493          	slli	s1,s1,0x10
800025b8:	00050593          	mv	a1,a0
800025bc:	00050b13          	mv	s6,a0
800025c0:	010b9b93          	slli	s7,s7,0x10
800025c4:	000d0513          	mv	a0,s10
800025c8:	0104d493          	srli	s1,s1,0x10
800025cc:	244010ef          	jal	ra,80003810 <__mulsi3>
800025d0:	009be4b3          	or	s1,s7,s1
800025d4:	00a4fe63          	bgeu	s1,a0,800025f0 <__umoddi3+0x4a4>
800025d8:	018484b3          	add	s1,s1,s8
800025dc:	fffb0793          	addi	a5,s6,-1
800025e0:	1184ee63          	bltu	s1,s8,800026fc <__umoddi3+0x5b0>
800025e4:	10a4fc63          	bgeu	s1,a0,800026fc <__umoddi3+0x5b0>
800025e8:	ffeb0b13          	addi	s6,s6,-2
800025ec:	018484b3          	add	s1,s1,s8
800025f0:	00010e37          	lui	t3,0x10
800025f4:	01099993          	slli	s3,s3,0x10
800025f8:	0169e9b3          	or	s3,s3,s6
800025fc:	fffe0713          	addi	a4,t3,-1 # ffff <_tbss_end+0xffff>
80002600:	00e9f7b3          	and	a5,s3,a4
80002604:	00e97733          	and	a4,s2,a4
80002608:	40a484b3          	sub	s1,s1,a0
8000260c:	0109d993          	srli	s3,s3,0x10
80002610:	01095893          	srli	a7,s2,0x10
80002614:	00078513          	mv	a0,a5
80002618:	00070593          	mv	a1,a4
8000261c:	1f4010ef          	jal	ra,80003810 <__mulsi3>
80002620:	00050813          	mv	a6,a0
80002624:	00088593          	mv	a1,a7
80002628:	00078513          	mv	a0,a5
8000262c:	1e4010ef          	jal	ra,80003810 <__mulsi3>
80002630:	00050313          	mv	t1,a0
80002634:	00070593          	mv	a1,a4
80002638:	00098513          	mv	a0,s3
8000263c:	1d4010ef          	jal	ra,80003810 <__mulsi3>
80002640:	00050713          	mv	a4,a0
80002644:	00088593          	mv	a1,a7
80002648:	00098513          	mv	a0,s3
8000264c:	1c4010ef          	jal	ra,80003810 <__mulsi3>
80002650:	01085793          	srli	a5,a6,0x10
80002654:	00e30333          	add	t1,t1,a4
80002658:	006787b3          	add	a5,a5,t1
8000265c:	00e7f463          	bgeu	a5,a4,80002664 <__umoddi3+0x518>
80002660:	01c50533          	add	a0,a0,t3
80002664:	00010737          	lui	a4,0x10
80002668:	fff70713          	addi	a4,a4,-1 # ffff <_tbss_end+0xffff>
8000266c:	0107d593          	srli	a1,a5,0x10
80002670:	00e7f7b3          	and	a5,a5,a4
80002674:	01079793          	slli	a5,a5,0x10
80002678:	00e87833          	and	a6,a6,a4
8000267c:	00a585b3          	add	a1,a1,a0
80002680:	010787b3          	add	a5,a5,a6
80002684:	02b4e863          	bltu	s1,a1,800026b4 <__umoddi3+0x568>
80002688:	02b48463          	beq	s1,a1,800026b0 <__umoddi3+0x564>
8000268c:	40f407b3          	sub	a5,s0,a5
80002690:	00f43433          	sltu	s0,s0,a5
80002694:	40b485b3          	sub	a1,s1,a1
80002698:	408585b3          	sub	a1,a1,s0
8000269c:	01559533          	sll	a0,a1,s5
800026a0:	0147d7b3          	srl	a5,a5,s4
800026a4:	00f56533          	or	a0,a0,a5
800026a8:	0145d5b3          	srl	a1,a1,s4
800026ac:	bf1ff06f          	j	8000229c <__umoddi3+0x150>
800026b0:	fcf47ee3          	bgeu	s0,a5,8000268c <__umoddi3+0x540>
800026b4:	41278933          	sub	s2,a5,s2
800026b8:	0127b7b3          	sltu	a5,a5,s2
800026bc:	018787b3          	add	a5,a5,s8
800026c0:	40f585b3          	sub	a1,a1,a5
800026c4:	00090793          	mv	a5,s2
800026c8:	fc5ff06f          	j	8000268c <__umoddi3+0x540>
800026cc:	010b5713          	srli	a4,s6,0x10
800026d0:	01000913          	li	s2,16
800026d4:	c2dff06f          	j	80002300 <__umoddi3+0x1b4>
800026d8:	0106d813          	srli	a6,a3,0x10
800026dc:	01000713          	li	a4,16
800026e0:	cf1ff06f          	j	800023d0 <__umoddi3+0x284>
800026e4:	01065713          	srli	a4,a2,0x10
800026e8:	01000913          	li	s2,16
800026ec:	ad1ff06f          	j	800021bc <__umoddi3+0x70>
800026f0:	00068813          	mv	a6,a3
800026f4:	00000713          	li	a4,0
800026f8:	cd9ff06f          	j	800023d0 <__umoddi3+0x284>
800026fc:	00078b13          	mv	s6,a5
80002700:	ef1ff06f          	j	800025f0 <__umoddi3+0x4a4>
80002704:	00078993          	mv	s3,a5
80002708:	e8dff06f          	j	80002594 <__umoddi3+0x448>
8000270c:	016787b3          	add	a5,a5,s6
80002710:	b31ff06f          	j	80002240 <__umoddi3+0xf4>

80002714 <__divdf3>:
80002714:	fb010113          	addi	sp,sp,-80
80002718:	0145d713          	srli	a4,a1,0x14
8000271c:	04812423          	sw	s0,72(sp)
80002720:	04912223          	sw	s1,68(sp)
80002724:	03512a23          	sw	s5,52(sp)
80002728:	00c59413          	slli	s0,a1,0xc
8000272c:	04112623          	sw	ra,76(sp)
80002730:	05212023          	sw	s2,64(sp)
80002734:	03312e23          	sw	s3,60(sp)
80002738:	03412c23          	sw	s4,56(sp)
8000273c:	03612823          	sw	s6,48(sp)
80002740:	03712623          	sw	s7,44(sp)
80002744:	03812423          	sw	s8,40(sp)
80002748:	03912223          	sw	s9,36(sp)
8000274c:	03a12023          	sw	s10,32(sp)
80002750:	01b12e23          	sw	s11,28(sp)
80002754:	7ff77713          	andi	a4,a4,2047
80002758:	00050493          	mv	s1,a0
8000275c:	00c45413          	srli	s0,s0,0xc
80002760:	01f5da93          	srli	s5,a1,0x1f
80002764:	18070463          	beqz	a4,800028ec <__divdf3+0x1d8>
80002768:	7ff00793          	li	a5,2047
8000276c:	1cf70e63          	beq	a4,a5,80002948 <__divdf3+0x234>
80002770:	01d55b13          	srli	s6,a0,0x1d
80002774:	00341413          	slli	s0,s0,0x3
80002778:	008b6433          	or	s0,s6,s0
8000277c:	00800b37          	lui	s6,0x800
80002780:	01646b33          	or	s6,s0,s6
80002784:	00351b93          	slli	s7,a0,0x3
80002788:	c0170913          	addi	s2,a4,-1023
8000278c:	00000413          	li	s0,0
80002790:	00000c13          	li	s8,0
80002794:	0146d713          	srli	a4,a3,0x14
80002798:	00c69993          	slli	s3,a3,0xc
8000279c:	7ff77713          	andi	a4,a4,2047
800027a0:	00060813          	mv	a6,a2
800027a4:	00c9d993          	srli	s3,s3,0xc
800027a8:	01f6da13          	srli	s4,a3,0x1f
800027ac:	0e070863          	beqz	a4,8000289c <__divdf3+0x188>
800027b0:	7ff00793          	li	a5,2047
800027b4:	04f70863          	beq	a4,a5,80002804 <__divdf3+0xf0>
800027b8:	01d65493          	srli	s1,a2,0x1d
800027bc:	00399993          	slli	s3,s3,0x3
800027c0:	0134e9b3          	or	s3,s1,s3
800027c4:	c0170713          	addi	a4,a4,-1023
800027c8:	008007b7          	lui	a5,0x800
800027cc:	00361813          	slli	a6,a2,0x3
800027d0:	00f9e4b3          	or	s1,s3,a5
800027d4:	40e90933          	sub	s2,s2,a4
800027d8:	00000613          	li	a2,0
800027dc:	00f00793          	li	a5,15
800027e0:	014ac9b3          	xor	s3,s5,s4
800027e4:	2687e863          	bltu	a5,s0,80002a54 <__divdf3+0x340>
800027e8:	00002797          	auipc	a5,0x2
800027ec:	1f478793          	addi	a5,a5,500 # 800049dc <_GLOBAL_OFFSET_TABLE_+0x754>
800027f0:	00241413          	slli	s0,s0,0x2
800027f4:	00f40433          	add	s0,s0,a5
800027f8:	00042703          	lw	a4,0(s0)
800027fc:	00f70733          	add	a4,a4,a5
80002800:	00070067          	jr	a4
80002804:	00c9e4b3          	or	s1,s3,a2
80002808:	80190913          	addi	s2,s2,-2047
8000280c:	18049a63          	bnez	s1,800029a0 <__divdf3+0x28c>
80002810:	00246413          	ori	s0,s0,2
80002814:	00000813          	li	a6,0
80002818:	00200613          	li	a2,2
8000281c:	fc1ff06f          	j	800027dc <__divdf3+0xc8>
80002820:	7ff00613          	li	a2,2047
80002824:	00000793          	li	a5,0
80002828:	00000713          	li	a4,0
8000282c:	00c79793          	slli	a5,a5,0xc
80002830:	04c12083          	lw	ra,76(sp)
80002834:	04812403          	lw	s0,72(sp)
80002838:	01461613          	slli	a2,a2,0x14
8000283c:	00c7d793          	srli	a5,a5,0xc
80002840:	01f99993          	slli	s3,s3,0x1f
80002844:	00c7e7b3          	or	a5,a5,a2
80002848:	0137e7b3          	or	a5,a5,s3
8000284c:	04412483          	lw	s1,68(sp)
80002850:	04012903          	lw	s2,64(sp)
80002854:	03c12983          	lw	s3,60(sp)
80002858:	03812a03          	lw	s4,56(sp)
8000285c:	03412a83          	lw	s5,52(sp)
80002860:	03012b03          	lw	s6,48(sp)
80002864:	02c12b83          	lw	s7,44(sp)
80002868:	02812c03          	lw	s8,40(sp)
8000286c:	02412c83          	lw	s9,36(sp)
80002870:	02012d03          	lw	s10,32(sp)
80002874:	01c12d83          	lw	s11,28(sp)
80002878:	00070513          	mv	a0,a4
8000287c:	00078593          	mv	a1,a5
80002880:	05010113          	addi	sp,sp,80
80002884:	00008067          	ret
80002888:	00000993          	li	s3,0
8000288c:	7ff00613          	li	a2,2047
80002890:	000807b7          	lui	a5,0x80
80002894:	00000713          	li	a4,0
80002898:	f95ff06f          	j	8000282c <__divdf3+0x118>
8000289c:	00c9e4b3          	or	s1,s3,a2
800028a0:	0e048863          	beqz	s1,80002990 <__divdf3+0x27c>
800028a4:	4e098463          	beqz	s3,80002d8c <__divdf3+0x678>
800028a8:	00098513          	mv	a0,s3
800028ac:	00c12423          	sw	a2,8(sp)
800028b0:	038010ef          	jal	ra,800038e8 <__clzsi2>
800028b4:	00812603          	lw	a2,8(sp)
800028b8:	00050693          	mv	a3,a0
800028bc:	ff550493          	addi	s1,a0,-11
800028c0:	01d00793          	li	a5,29
800028c4:	ff868713          	addi	a4,a3,-8
800028c8:	409787b3          	sub	a5,a5,s1
800028cc:	00e999b3          	sll	s3,s3,a4
800028d0:	00f657b3          	srl	a5,a2,a5
800028d4:	0137e4b3          	or	s1,a5,s3
800028d8:	00e61833          	sll	a6,a2,a4
800028dc:	01268733          	add	a4,a3,s2
800028e0:	3f370913          	addi	s2,a4,1011
800028e4:	00000613          	li	a2,0
800028e8:	ef5ff06f          	j	800027dc <__divdf3+0xc8>
800028ec:	00a46b33          	or	s6,s0,a0
800028f0:	080b0663          	beqz	s6,8000297c <__divdf3+0x268>
800028f4:	00d12623          	sw	a3,12(sp)
800028f8:	00c12423          	sw	a2,8(sp)
800028fc:	46040263          	beqz	s0,80002d60 <__divdf3+0x64c>
80002900:	00040513          	mv	a0,s0
80002904:	7e5000ef          	jal	ra,800038e8 <__clzsi2>
80002908:	00812603          	lw	a2,8(sp)
8000290c:	00c12683          	lw	a3,12(sp)
80002910:	00050913          	mv	s2,a0
80002914:	ff550713          	addi	a4,a0,-11
80002918:	01d00b13          	li	s6,29
8000291c:	ff890b93          	addi	s7,s2,-8
80002920:	40eb0b33          	sub	s6,s6,a4
80002924:	01741433          	sll	s0,s0,s7
80002928:	0164db33          	srl	s6,s1,s6
8000292c:	008b6b33          	or	s6,s6,s0
80002930:	01749bb3          	sll	s7,s1,s7
80002934:	c0d00713          	li	a4,-1011
80002938:	41270933          	sub	s2,a4,s2
8000293c:	00000413          	li	s0,0
80002940:	00000c13          	li	s8,0
80002944:	e51ff06f          	j	80002794 <__divdf3+0x80>
80002948:	00a46b33          	or	s6,s0,a0
8000294c:	000b1c63          	bnez	s6,80002964 <__divdf3+0x250>
80002950:	00800413          	li	s0,8
80002954:	00000b93          	li	s7,0
80002958:	7ff00913          	li	s2,2047
8000295c:	00200c13          	li	s8,2
80002960:	e35ff06f          	j	80002794 <__divdf3+0x80>
80002964:	00040b13          	mv	s6,s0
80002968:	00050b93          	mv	s7,a0
8000296c:	00c00413          	li	s0,12
80002970:	7ff00913          	li	s2,2047
80002974:	00300c13          	li	s8,3
80002978:	e1dff06f          	j	80002794 <__divdf3+0x80>
8000297c:	00400413          	li	s0,4
80002980:	00000b93          	li	s7,0
80002984:	00000913          	li	s2,0
80002988:	00100c13          	li	s8,1
8000298c:	e09ff06f          	j	80002794 <__divdf3+0x80>
80002990:	00146413          	ori	s0,s0,1
80002994:	00000813          	li	a6,0
80002998:	00100613          	li	a2,1
8000299c:	e41ff06f          	j	800027dc <__divdf3+0xc8>
800029a0:	00346413          	ori	s0,s0,3
800029a4:	00098493          	mv	s1,s3
800029a8:	00300613          	li	a2,3
800029ac:	e31ff06f          	j	800027dc <__divdf3+0xc8>
800029b0:	4a040663          	beqz	s0,80002e5c <__divdf3+0x748>
800029b4:	00100793          	li	a5,1
800029b8:	408787b3          	sub	a5,a5,s0
800029bc:	03800713          	li	a4,56
800029c0:	50f75663          	bge	a4,a5,80002ecc <__divdf3+0x7b8>
800029c4:	00000613          	li	a2,0
800029c8:	00000793          	li	a5,0
800029cc:	00000713          	li	a4,0
800029d0:	e5dff06f          	j	8000282c <__divdf3+0x118>
800029d4:	000a0693          	mv	a3,s4
800029d8:	00200793          	li	a5,2
800029dc:	5af60c63          	beq	a2,a5,80002f94 <__divdf3+0x880>
800029e0:	00300793          	li	a5,3
800029e4:	eaf602e3          	beq	a2,a5,80002888 <__divdf3+0x174>
800029e8:	00100793          	li	a5,1
800029ec:	00068993          	mv	s3,a3
800029f0:	fcf60ae3          	beq	a2,a5,800029c4 <__divdf3+0x2b0>
800029f4:	3ff90413          	addi	s0,s2,1023
800029f8:	fa805ce3          	blez	s0,800029b0 <__divdf3+0x29c>
800029fc:	00787793          	andi	a5,a6,7
80002a00:	42079063          	bnez	a5,80002e20 <__divdf3+0x70c>
80002a04:	00385813          	srli	a6,a6,0x3
80002a08:	00749793          	slli	a5,s1,0x7
80002a0c:	0007da63          	bgez	a5,80002a20 <__divdf3+0x30c>
80002a10:	ff0007b7          	lui	a5,0xff000
80002a14:	fff78793          	addi	a5,a5,-1 # feffffff <_end+0x7eff8b6b>
80002a18:	00f4f4b3          	and	s1,s1,a5
80002a1c:	40090413          	addi	s0,s2,1024
80002a20:	7fe00793          	li	a5,2046
80002a24:	de87cee3          	blt	a5,s0,80002820 <__divdf3+0x10c>
80002a28:	01d49713          	slli	a4,s1,0x1d
80002a2c:	00949793          	slli	a5,s1,0x9
80002a30:	01076733          	or	a4,a4,a6
80002a34:	00c7d793          	srli	a5,a5,0xc
80002a38:	7ff47613          	andi	a2,s0,2047
80002a3c:	df1ff06f          	j	8000282c <__divdf3+0x118>
80002a40:	000a8693          	mv	a3,s5
80002a44:	000b0493          	mv	s1,s6
80002a48:	000b8813          	mv	a6,s7
80002a4c:	000c0613          	mv	a2,s8
80002a50:	f89ff06f          	j	800029d8 <__divdf3+0x2c4>
80002a54:	3964ec63          	bltu	s1,s6,80002dec <__divdf3+0x6d8>
80002a58:	389b0863          	beq	s6,s1,80002de8 <__divdf3+0x6d4>
80002a5c:	fff90913          	addi	s2,s2,-1
80002a60:	000b8a13          	mv	s4,s7
80002a64:	00000d93          	li	s11,0
80002a68:	00849793          	slli	a5,s1,0x8
80002a6c:	01885d13          	srli	s10,a6,0x18
80002a70:	00fd6d33          	or	s10,s10,a5
80002a74:	010d5a93          	srli	s5,s10,0x10
80002a78:	000a8593          	mv	a1,s5
80002a7c:	010d1c93          	slli	s9,s10,0x10
80002a80:	000b0513          	mv	a0,s6
80002a84:	00881c13          	slli	s8,a6,0x8
80002a88:	010cdc93          	srli	s9,s9,0x10
80002a8c:	5b1000ef          	jal	ra,8000383c <__udivsi3>
80002a90:	00050593          	mv	a1,a0
80002a94:	00050493          	mv	s1,a0
80002a98:	000c8513          	mv	a0,s9
80002a9c:	575000ef          	jal	ra,80003810 <__mulsi3>
80002aa0:	00050b93          	mv	s7,a0
80002aa4:	000a8593          	mv	a1,s5
80002aa8:	000b0513          	mv	a0,s6
80002aac:	5d9000ef          	jal	ra,80003884 <__umodsi3>
80002ab0:	01051513          	slli	a0,a0,0x10
80002ab4:	010a5713          	srli	a4,s4,0x10
80002ab8:	00a76533          	or	a0,a4,a0
80002abc:	01757e63          	bgeu	a0,s7,80002ad8 <__divdf3+0x3c4>
80002ac0:	01a50533          	add	a0,a0,s10
80002ac4:	fff48793          	addi	a5,s1,-1
80002ac8:	3fa56e63          	bltu	a0,s10,80002ec4 <__divdf3+0x7b0>
80002acc:	3f757c63          	bgeu	a0,s7,80002ec4 <__divdf3+0x7b0>
80002ad0:	ffe48493          	addi	s1,s1,-2
80002ad4:	01a50533          	add	a0,a0,s10
80002ad8:	41750433          	sub	s0,a0,s7
80002adc:	000a8593          	mv	a1,s5
80002ae0:	00040513          	mv	a0,s0
80002ae4:	559000ef          	jal	ra,8000383c <__udivsi3>
80002ae8:	00050593          	mv	a1,a0
80002aec:	00050b13          	mv	s6,a0
80002af0:	000c8513          	mv	a0,s9
80002af4:	51d000ef          	jal	ra,80003810 <__mulsi3>
80002af8:	00050b93          	mv	s7,a0
80002afc:	000a8593          	mv	a1,s5
80002b00:	00040513          	mv	a0,s0
80002b04:	581000ef          	jal	ra,80003884 <__umodsi3>
80002b08:	010a1a13          	slli	s4,s4,0x10
80002b0c:	01051513          	slli	a0,a0,0x10
80002b10:	010a5a13          	srli	s4,s4,0x10
80002b14:	00aa6533          	or	a0,s4,a0
80002b18:	01757e63          	bgeu	a0,s7,80002b34 <__divdf3+0x420>
80002b1c:	01a50533          	add	a0,a0,s10
80002b20:	fffb0793          	addi	a5,s6,-1 # 7fffff <_tbss_end+0x7fffff>
80002b24:	39a56c63          	bltu	a0,s10,80002ebc <__divdf3+0x7a8>
80002b28:	39757a63          	bgeu	a0,s7,80002ebc <__divdf3+0x7a8>
80002b2c:	ffeb0b13          	addi	s6,s6,-2
80002b30:	01a50533          	add	a0,a0,s10
80002b34:	00010e37          	lui	t3,0x10
80002b38:	01049493          	slli	s1,s1,0x10
80002b3c:	0164e4b3          	or	s1,s1,s6
80002b40:	fffe0b13          	addi	s6,t3,-1 # ffff <_tbss_end+0xffff>
80002b44:	0164f833          	and	a6,s1,s6
80002b48:	016c7b33          	and	s6,s8,s6
80002b4c:	41750bb3          	sub	s7,a0,s7
80002b50:	0104d713          	srli	a4,s1,0x10
80002b54:	010c5793          	srli	a5,s8,0x10
80002b58:	00080513          	mv	a0,a6
80002b5c:	000b0593          	mv	a1,s6
80002b60:	4b1000ef          	jal	ra,80003810 <__mulsi3>
80002b64:	00050893          	mv	a7,a0
80002b68:	00078593          	mv	a1,a5
80002b6c:	00080513          	mv	a0,a6
80002b70:	4a1000ef          	jal	ra,80003810 <__mulsi3>
80002b74:	00050813          	mv	a6,a0
80002b78:	000b0593          	mv	a1,s6
80002b7c:	00070513          	mv	a0,a4
80002b80:	491000ef          	jal	ra,80003810 <__mulsi3>
80002b84:	00050313          	mv	t1,a0
80002b88:	00078593          	mv	a1,a5
80002b8c:	00070513          	mv	a0,a4
80002b90:	481000ef          	jal	ra,80003810 <__mulsi3>
80002b94:	0108d713          	srli	a4,a7,0x10
80002b98:	00680833          	add	a6,a6,t1
80002b9c:	01070733          	add	a4,a4,a6
80002ba0:	00677463          	bgeu	a4,t1,80002ba8 <__divdf3+0x494>
80002ba4:	01c50533          	add	a0,a0,t3
80002ba8:	00010637          	lui	a2,0x10
80002bac:	fff60613          	addi	a2,a2,-1 # ffff <_tbss_end+0xffff>
80002bb0:	01075693          	srli	a3,a4,0x10
80002bb4:	00c77a33          	and	s4,a4,a2
80002bb8:	010a1a13          	slli	s4,s4,0x10
80002bbc:	00c8f733          	and	a4,a7,a2
80002bc0:	00a68533          	add	a0,a3,a0
80002bc4:	00ea0a33          	add	s4,s4,a4
80002bc8:	1eabec63          	bltu	s7,a0,80002dc0 <__divdf3+0x6ac>
80002bcc:	1eab8863          	beq	s7,a0,80002dbc <__divdf3+0x6a8>
80002bd0:	414d8a33          	sub	s4,s11,s4
80002bd4:	40ab8533          	sub	a0,s7,a0
80002bd8:	014dbbb3          	sltu	s7,s11,s4
80002bdc:	00f12423          	sw	a5,8(sp)
80002be0:	41750bb3          	sub	s7,a0,s7
80002be4:	3ff90413          	addi	s0,s2,1023
80002be8:	257d0e63          	beq	s10,s7,80002e44 <__divdf3+0x730>
80002bec:	000a8593          	mv	a1,s5
80002bf0:	000b8513          	mv	a0,s7
80002bf4:	449000ef          	jal	ra,8000383c <__udivsi3>
80002bf8:	00050593          	mv	a1,a0
80002bfc:	00050d93          	mv	s11,a0
80002c00:	000c8513          	mv	a0,s9
80002c04:	40d000ef          	jal	ra,80003810 <__mulsi3>
80002c08:	00a12623          	sw	a0,12(sp)
80002c0c:	000a8593          	mv	a1,s5
80002c10:	000b8513          	mv	a0,s7
80002c14:	471000ef          	jal	ra,80003884 <__umodsi3>
80002c18:	00c12703          	lw	a4,12(sp)
80002c1c:	01051513          	slli	a0,a0,0x10
80002c20:	010a5693          	srli	a3,s4,0x10
80002c24:	00a6e533          	or	a0,a3,a0
80002c28:	00812783          	lw	a5,8(sp)
80002c2c:	00e57e63          	bgeu	a0,a4,80002c48 <__divdf3+0x534>
80002c30:	01a50533          	add	a0,a0,s10
80002c34:	fffd8693          	addi	a3,s11,-1
80002c38:	31a56c63          	bltu	a0,s10,80002f50 <__divdf3+0x83c>
80002c3c:	30e57a63          	bgeu	a0,a4,80002f50 <__divdf3+0x83c>
80002c40:	ffed8d93          	addi	s11,s11,-2
80002c44:	01a50533          	add	a0,a0,s10
80002c48:	40e50bb3          	sub	s7,a0,a4
80002c4c:	000a8593          	mv	a1,s5
80002c50:	000b8513          	mv	a0,s7
80002c54:	00f12623          	sw	a5,12(sp)
80002c58:	3e5000ef          	jal	ra,8000383c <__udivsi3>
80002c5c:	00050593          	mv	a1,a0
80002c60:	00a12423          	sw	a0,8(sp)
80002c64:	000c8513          	mv	a0,s9
80002c68:	3a9000ef          	jal	ra,80003810 <__mulsi3>
80002c6c:	00050c93          	mv	s9,a0
80002c70:	000a8593          	mv	a1,s5
80002c74:	000b8513          	mv	a0,s7
80002c78:	40d000ef          	jal	ra,80003884 <__umodsi3>
80002c7c:	010a1a13          	slli	s4,s4,0x10
80002c80:	01051513          	slli	a0,a0,0x10
80002c84:	010a5a13          	srli	s4,s4,0x10
80002c88:	00aa6a33          	or	s4,s4,a0
80002c8c:	00812803          	lw	a6,8(sp)
80002c90:	00c12783          	lw	a5,12(sp)
80002c94:	019a7e63          	bgeu	s4,s9,80002cb0 <__divdf3+0x59c>
80002c98:	01aa0a33          	add	s4,s4,s10
80002c9c:	fff80713          	addi	a4,a6,-1
80002ca0:	2baa6c63          	bltu	s4,s10,80002f58 <__divdf3+0x844>
80002ca4:	2b9a7a63          	bgeu	s4,s9,80002f58 <__divdf3+0x844>
80002ca8:	ffe80813          	addi	a6,a6,-2
80002cac:	01aa0a33          	add	s4,s4,s10
80002cb0:	010d9713          	slli	a4,s11,0x10
80002cb4:	01076833          	or	a6,a4,a6
80002cb8:	01081713          	slli	a4,a6,0x10
80002cbc:	01075713          	srli	a4,a4,0x10
80002cc0:	419a0a33          	sub	s4,s4,s9
80002cc4:	01085e13          	srli	t3,a6,0x10
80002cc8:	00070513          	mv	a0,a4
80002ccc:	000b0593          	mv	a1,s6
80002cd0:	341000ef          	jal	ra,80003810 <__mulsi3>
80002cd4:	00050893          	mv	a7,a0
80002cd8:	00078593          	mv	a1,a5
80002cdc:	00070513          	mv	a0,a4
80002ce0:	331000ef          	jal	ra,80003810 <__mulsi3>
80002ce4:	00050713          	mv	a4,a0
80002ce8:	000b0593          	mv	a1,s6
80002cec:	000e0513          	mv	a0,t3
80002cf0:	321000ef          	jal	ra,80003810 <__mulsi3>
80002cf4:	00050313          	mv	t1,a0
80002cf8:	00078593          	mv	a1,a5
80002cfc:	000e0513          	mv	a0,t3
80002d00:	311000ef          	jal	ra,80003810 <__mulsi3>
80002d04:	0108d793          	srli	a5,a7,0x10
80002d08:	00670733          	add	a4,a4,t1
80002d0c:	00e787b3          	add	a5,a5,a4
80002d10:	0067f663          	bgeu	a5,t1,80002d1c <__divdf3+0x608>
80002d14:	00010737          	lui	a4,0x10
80002d18:	00e50533          	add	a0,a0,a4
80002d1c:	000106b7          	lui	a3,0x10
80002d20:	fff68693          	addi	a3,a3,-1 # ffff <_tbss_end+0xffff>
80002d24:	0107d713          	srli	a4,a5,0x10
80002d28:	00d7f7b3          	and	a5,a5,a3
80002d2c:	01079793          	slli	a5,a5,0x10
80002d30:	00d8f8b3          	and	a7,a7,a3
80002d34:	00a70533          	add	a0,a4,a0
80002d38:	011787b3          	add	a5,a5,a7
80002d3c:	0caa7463          	bgeu	s4,a0,80002e04 <__divdf3+0x6f0>
80002d40:	014d0a33          	add	s4,s10,s4
80002d44:	fff80713          	addi	a4,a6,-1
80002d48:	25aa6063          	bltu	s4,s10,80002f88 <__divdf3+0x874>
80002d4c:	20aa6a63          	bltu	s4,a0,80002f60 <__divdf3+0x84c>
80002d50:	24aa0c63          	beq	s4,a0,80002fa8 <__divdf3+0x894>
80002d54:	00070813          	mv	a6,a4
80002d58:	00186813          	ori	a6,a6,1
80002d5c:	c9dff06f          	j	800029f8 <__divdf3+0x2e4>
80002d60:	389000ef          	jal	ra,800038e8 <__clzsi2>
80002d64:	01550713          	addi	a4,a0,21
80002d68:	01c00593          	li	a1,28
80002d6c:	02050913          	addi	s2,a0,32
80002d70:	00812603          	lw	a2,8(sp)
80002d74:	00c12683          	lw	a3,12(sp)
80002d78:	bae5d0e3          	bge	a1,a4,80002918 <__divdf3+0x204>
80002d7c:	ff850413          	addi	s0,a0,-8
80002d80:	00849b33          	sll	s6,s1,s0
80002d84:	00000b93          	li	s7,0
80002d88:	badff06f          	j	80002934 <__divdf3+0x220>
80002d8c:	00060513          	mv	a0,a2
80002d90:	00c12423          	sw	a2,8(sp)
80002d94:	355000ef          	jal	ra,800038e8 <__clzsi2>
80002d98:	01550493          	addi	s1,a0,21
80002d9c:	01c00793          	li	a5,28
80002da0:	02050693          	addi	a3,a0,32
80002da4:	00812603          	lw	a2,8(sp)
80002da8:	b097dce3          	bge	a5,s1,800028c0 <__divdf3+0x1ac>
80002dac:	ff850793          	addi	a5,a0,-8
80002db0:	00f614b3          	sll	s1,a2,a5
80002db4:	00000813          	li	a6,0
80002db8:	b25ff06f          	j	800028dc <__divdf3+0x1c8>
80002dbc:	e14dfae3          	bgeu	s11,s4,80002bd0 <__divdf3+0x4bc>
80002dc0:	018d8db3          	add	s11,s11,s8
80002dc4:	018db733          	sltu	a4,s11,s8
80002dc8:	01a70733          	add	a4,a4,s10
80002dcc:	00eb8bb3          	add	s7,s7,a4
80002dd0:	fff48713          	addi	a4,s1,-1
80002dd4:	037d7e63          	bgeu	s10,s7,80002e10 <__divdf3+0x6fc>
80002dd8:	16abe063          	bltu	s7,a0,80002f38 <__divdf3+0x824>
80002ddc:	15750c63          	beq	a0,s7,80002f34 <__divdf3+0x820>
80002de0:	00070493          	mv	s1,a4
80002de4:	dedff06f          	j	80002bd0 <__divdf3+0x4bc>
80002de8:	c70beae3          	bltu	s7,a6,80002a5c <__divdf3+0x348>
80002dec:	01fb1a13          	slli	s4,s6,0x1f
80002df0:	001bd793          	srli	a5,s7,0x1
80002df4:	001b5b13          	srli	s6,s6,0x1
80002df8:	00fa6a33          	or	s4,s4,a5
80002dfc:	01fb9d93          	slli	s11,s7,0x1f
80002e00:	c69ff06f          	j	80002a68 <__divdf3+0x354>
80002e04:	f4aa1ae3          	bne	s4,a0,80002d58 <__divdf3+0x644>
80002e08:	be0788e3          	beqz	a5,800029f8 <__divdf3+0x2e4>
80002e0c:	f35ff06f          	j	80002d40 <__divdf3+0x62c>
80002e10:	fd7d18e3          	bne	s10,s7,80002de0 <__divdf3+0x6cc>
80002e14:	fd8df2e3          	bgeu	s11,s8,80002dd8 <__divdf3+0x6c4>
80002e18:	00070493          	mv	s1,a4
80002e1c:	db5ff06f          	j	80002bd0 <__divdf3+0x4bc>
80002e20:	00f87793          	andi	a5,a6,15
80002e24:	00400713          	li	a4,4
80002e28:	bce78ee3          	beq	a5,a4,80002a04 <__divdf3+0x2f0>
80002e2c:	ffc83793          	sltiu	a5,a6,-4
80002e30:	00480813          	addi	a6,a6,4
80002e34:	0017c793          	xori	a5,a5,1
80002e38:	00385813          	srli	a6,a6,0x3
80002e3c:	00f484b3          	add	s1,s1,a5
80002e40:	bc9ff06f          	j	80002a08 <__divdf3+0x2f4>
80002e44:	00000813          	li	a6,0
80002e48:	00100793          	li	a5,1
80002e4c:	fe8048e3          	bgtz	s0,80002e3c <__divdf3+0x728>
80002e50:	fff00813          	li	a6,-1
80002e54:	b60410e3          	bnez	s0,800029b4 <__divdf3+0x2a0>
80002e58:	c0100913          	li	s2,-1023
80002e5c:	00100793          	li	a5,1
80002e60:	41e90713          	addi	a4,s2,1054
80002e64:	00e496b3          	sll	a3,s1,a4
80002e68:	00f85633          	srl	a2,a6,a5
80002e6c:	00e81833          	sll	a6,a6,a4
80002e70:	01003833          	snez	a6,a6
80002e74:	00c6e733          	or	a4,a3,a2
80002e78:	01076733          	or	a4,a4,a6
80002e7c:	00777693          	andi	a3,a4,7
80002e80:	00f4d4b3          	srl	s1,s1,a5
80002e84:	02068063          	beqz	a3,80002ea4 <__divdf3+0x790>
80002e88:	00f77793          	andi	a5,a4,15
80002e8c:	00400693          	li	a3,4
80002e90:	00d78a63          	beq	a5,a3,80002ea4 <__divdf3+0x790>
80002e94:	00470793          	addi	a5,a4,4 # 10004 <_tbss_end+0x10004>
80002e98:	00e7b733          	sltu	a4,a5,a4
80002e9c:	00e484b3          	add	s1,s1,a4
80002ea0:	00078713          	mv	a4,a5
80002ea4:	00849793          	slli	a5,s1,0x8
80002ea8:	0607d863          	bgez	a5,80002f18 <__divdf3+0x804>
80002eac:	00100613          	li	a2,1
80002eb0:	00000793          	li	a5,0
80002eb4:	00000713          	li	a4,0
80002eb8:	975ff06f          	j	8000282c <__divdf3+0x118>
80002ebc:	00078b13          	mv	s6,a5
80002ec0:	c75ff06f          	j	80002b34 <__divdf3+0x420>
80002ec4:	00078493          	mv	s1,a5
80002ec8:	c11ff06f          	j	80002ad8 <__divdf3+0x3c4>
80002ecc:	01f00713          	li	a4,31
80002ed0:	f8f758e3          	bge	a4,a5,80002e60 <__divdf3+0x74c>
80002ed4:	fe100613          	li	a2,-31
80002ed8:	40860633          	sub	a2,a2,s0
80002edc:	02000713          	li	a4,32
80002ee0:	00c4d633          	srl	a2,s1,a2
80002ee4:	00e78863          	beq	a5,a4,80002ef4 <__divdf3+0x7e0>
80002ee8:	43e90793          	addi	a5,s2,1086
80002eec:	00f497b3          	sll	a5,s1,a5
80002ef0:	00f86833          	or	a6,a6,a5
80002ef4:	01003733          	snez	a4,a6
80002ef8:	00c76733          	or	a4,a4,a2
80002efc:	00777493          	andi	s1,a4,7
80002f00:	00000793          	li	a5,0
80002f04:	02048063          	beqz	s1,80002f24 <__divdf3+0x810>
80002f08:	00f77793          	andi	a5,a4,15
80002f0c:	00400693          	li	a3,4
80002f10:	00000493          	li	s1,0
80002f14:	f8d790e3          	bne	a5,a3,80002e94 <__divdf3+0x780>
80002f18:	00949793          	slli	a5,s1,0x9
80002f1c:	00c7d793          	srli	a5,a5,0xc
80002f20:	01d49493          	slli	s1,s1,0x1d
80002f24:	00375713          	srli	a4,a4,0x3
80002f28:	00976733          	or	a4,a4,s1
80002f2c:	00000613          	li	a2,0
80002f30:	8fdff06f          	j	8000282c <__divdf3+0x118>
80002f34:	eb4df6e3          	bgeu	s11,s4,80002de0 <__divdf3+0x6cc>
80002f38:	018d8db3          	add	s11,s11,s8
80002f3c:	018db733          	sltu	a4,s11,s8
80002f40:	01a70733          	add	a4,a4,s10
80002f44:	ffe48493          	addi	s1,s1,-2
80002f48:	00eb8bb3          	add	s7,s7,a4
80002f4c:	c85ff06f          	j	80002bd0 <__divdf3+0x4bc>
80002f50:	00068d93          	mv	s11,a3
80002f54:	cf5ff06f          	j	80002c48 <__divdf3+0x534>
80002f58:	00070813          	mv	a6,a4
80002f5c:	d55ff06f          	j	80002cb0 <__divdf3+0x59c>
80002f60:	001c1713          	slli	a4,s8,0x1
80002f64:	01873c33          	sltu	s8,a4,s8
80002f68:	01ac0d33          	add	s10,s8,s10
80002f6c:	01aa0a33          	add	s4,s4,s10
80002f70:	ffe80813          	addi	a6,a6,-2
80002f74:	00070c13          	mv	s8,a4
80002f78:	deaa10e3          	bne	s4,a0,80002d58 <__divdf3+0x644>
80002f7c:	a7878ee3          	beq	a5,s8,800029f8 <__divdf3+0x2e4>
80002f80:	00186813          	ori	a6,a6,1
80002f84:	a75ff06f          	j	800029f8 <__divdf3+0x2e4>
80002f88:	00070813          	mv	a6,a4
80002f8c:	feaa08e3          	beq	s4,a0,80002f7c <__divdf3+0x868>
80002f90:	dc9ff06f          	j	80002d58 <__divdf3+0x644>
80002f94:	00068993          	mv	s3,a3
80002f98:	7ff00613          	li	a2,2047
80002f9c:	00000793          	li	a5,0
80002fa0:	00000713          	li	a4,0
80002fa4:	889ff06f          	j	8000282c <__divdf3+0x118>
80002fa8:	fafc6ce3          	bltu	s8,a5,80002f60 <__divdf3+0x84c>
80002fac:	00070813          	mv	a6,a4
80002fb0:	fd8798e3          	bne	a5,s8,80002f80 <__divdf3+0x86c>
80002fb4:	a45ff06f          	j	800029f8 <__divdf3+0x2e4>

80002fb8 <__muldf3>:
80002fb8:	fc010113          	addi	sp,sp,-64
80002fbc:	03212823          	sw	s2,48(sp)
80002fc0:	0145d913          	srli	s2,a1,0x14
80002fc4:	03312623          	sw	s3,44(sp)
80002fc8:	03412423          	sw	s4,40(sp)
80002fcc:	03512223          	sw	s5,36(sp)
80002fd0:	00c59993          	slli	s3,a1,0xc
80002fd4:	02112e23          	sw	ra,60(sp)
80002fd8:	02812c23          	sw	s0,56(sp)
80002fdc:	02912a23          	sw	s1,52(sp)
80002fe0:	03612023          	sw	s6,32(sp)
80002fe4:	01712e23          	sw	s7,28(sp)
80002fe8:	7ff97913          	andi	s2,s2,2047
80002fec:	00050a13          	mv	s4,a0
80002ff0:	00c9d993          	srli	s3,s3,0xc
80002ff4:	01f5da93          	srli	s5,a1,0x1f
80002ff8:	14090e63          	beqz	s2,80003154 <__muldf3+0x19c>
80002ffc:	7ff00793          	li	a5,2047
80003000:	20f90c63          	beq	s2,a5,80003218 <__muldf3+0x260>
80003004:	01d55413          	srli	s0,a0,0x1d
80003008:	00399993          	slli	s3,s3,0x3
8000300c:	013469b3          	or	s3,s0,s3
80003010:	00800437          	lui	s0,0x800
80003014:	0089e433          	or	s0,s3,s0
80003018:	00351493          	slli	s1,a0,0x3
8000301c:	c0190913          	addi	s2,s2,-1023
80003020:	00000993          	li	s3,0
80003024:	00000b93          	li	s7,0
80003028:	0146d793          	srli	a5,a3,0x14
8000302c:	00c69a13          	slli	s4,a3,0xc
80003030:	7ff7f793          	andi	a5,a5,2047
80003034:	00060593          	mv	a1,a2
80003038:	00ca5a13          	srli	s4,s4,0xc
8000303c:	01f6db13          	srli	s6,a3,0x1f
80003040:	18078463          	beqz	a5,800031c8 <__muldf3+0x210>
80003044:	7ff00713          	li	a4,2047
80003048:	04e78c63          	beq	a5,a4,800030a0 <__muldf3+0xe8>
8000304c:	01d65713          	srli	a4,a2,0x1d
80003050:	003a1a13          	slli	s4,s4,0x3
80003054:	01476a33          	or	s4,a4,s4
80003058:	c0178793          	addi	a5,a5,-1023
8000305c:	00800737          	lui	a4,0x800
80003060:	00ea6733          	or	a4,s4,a4
80003064:	00361593          	slli	a1,a2,0x3
80003068:	00f90933          	add	s2,s2,a5
8000306c:	00000513          	li	a0,0
80003070:	016ac833          	xor	a6,s5,s6
80003074:	00f00793          	li	a5,15
80003078:	00080613          	mv	a2,a6
8000307c:	00190893          	addi	a7,s2,1
80003080:	2337e063          	bltu	a5,s3,800032a0 <__muldf3+0x2e8>
80003084:	00002697          	auipc	a3,0x2
80003088:	99868693          	addi	a3,a3,-1640 # 80004a1c <_GLOBAL_OFFSET_TABLE_+0x794>
8000308c:	00299993          	slli	s3,s3,0x2
80003090:	00d989b3          	add	s3,s3,a3
80003094:	0009a783          	lw	a5,0(s3)
80003098:	00d787b3          	add	a5,a5,a3
8000309c:	00078067          	jr	a5
800030a0:	00ca6733          	or	a4,s4,a2
800030a4:	7ff90913          	addi	s2,s2,2047
800030a8:	1c071463          	bnez	a4,80003270 <__muldf3+0x2b8>
800030ac:	0029e993          	ori	s3,s3,2
800030b0:	00000593          	li	a1,0
800030b4:	00200513          	li	a0,2
800030b8:	fb9ff06f          	j	80003070 <__muldf3+0xb8>
800030bc:	00000813          	li	a6,0
800030c0:	7ff00793          	li	a5,2047
800030c4:	00080437          	lui	s0,0x80
800030c8:	00000493          	li	s1,0
800030cc:	00c41413          	slli	s0,s0,0xc
800030d0:	01479793          	slli	a5,a5,0x14
800030d4:	00c45413          	srli	s0,s0,0xc
800030d8:	01f81813          	slli	a6,a6,0x1f
800030dc:	00f46433          	or	s0,s0,a5
800030e0:	01046433          	or	s0,s0,a6
800030e4:	00040593          	mv	a1,s0
800030e8:	03c12083          	lw	ra,60(sp)
800030ec:	03812403          	lw	s0,56(sp)
800030f0:	00048513          	mv	a0,s1
800030f4:	03012903          	lw	s2,48(sp)
800030f8:	03412483          	lw	s1,52(sp)
800030fc:	02c12983          	lw	s3,44(sp)
80003100:	02812a03          	lw	s4,40(sp)
80003104:	02412a83          	lw	s5,36(sp)
80003108:	02012b03          	lw	s6,32(sp)
8000310c:	01c12b83          	lw	s7,28(sp)
80003110:	04010113          	addi	sp,sp,64
80003114:	00008067          	ret
80003118:	000b0613          	mv	a2,s6
8000311c:	00070413          	mv	s0,a4
80003120:	00058493          	mv	s1,a1
80003124:	00050b93          	mv	s7,a0
80003128:	00200793          	li	a5,2
8000312c:	16fb8063          	beq	s7,a5,8000328c <__muldf3+0x2d4>
80003130:	00300793          	li	a5,3
80003134:	f8fb84e3          	beq	s7,a5,800030bc <__muldf3+0x104>
80003138:	00100793          	li	a5,1
8000313c:	00060813          	mv	a6,a2
80003140:	58fb9263          	bne	s7,a5,800036c4 <__muldf3+0x70c>
80003144:	00000793          	li	a5,0
80003148:	00000413          	li	s0,0
8000314c:	00000493          	li	s1,0
80003150:	f7dff06f          	j	800030cc <__muldf3+0x114>
80003154:	00a9e433          	or	s0,s3,a0
80003158:	10040263          	beqz	s0,8000325c <__muldf3+0x2a4>
8000315c:	00d12623          	sw	a3,12(sp)
80003160:	00c12423          	sw	a2,8(sp)
80003164:	44098663          	beqz	s3,800035b0 <__muldf3+0x5f8>
80003168:	00098513          	mv	a0,s3
8000316c:	77c000ef          	jal	ra,800038e8 <__clzsi2>
80003170:	00812603          	lw	a2,8(sp)
80003174:	00c12683          	lw	a3,12(sp)
80003178:	00050793          	mv	a5,a0
8000317c:	ff550713          	addi	a4,a0,-11
80003180:	01d00413          	li	s0,29
80003184:	ff878493          	addi	s1,a5,-8
80003188:	40e40433          	sub	s0,s0,a4
8000318c:	009999b3          	sll	s3,s3,s1
80003190:	008a5433          	srl	s0,s4,s0
80003194:	01346433          	or	s0,s0,s3
80003198:	009a14b3          	sll	s1,s4,s1
8000319c:	c0d00913          	li	s2,-1011
800031a0:	40f90933          	sub	s2,s2,a5
800031a4:	0146d793          	srli	a5,a3,0x14
800031a8:	00c69a13          	slli	s4,a3,0xc
800031ac:	7ff7f793          	andi	a5,a5,2047
800031b0:	00000993          	li	s3,0
800031b4:	00000b93          	li	s7,0
800031b8:	00060593          	mv	a1,a2
800031bc:	00ca5a13          	srli	s4,s4,0xc
800031c0:	01f6db13          	srli	s6,a3,0x1f
800031c4:	e80790e3          	bnez	a5,80003044 <__muldf3+0x8c>
800031c8:	00ca6733          	or	a4,s4,a2
800031cc:	06070463          	beqz	a4,80003234 <__muldf3+0x27c>
800031d0:	3a0a0863          	beqz	s4,80003580 <__muldf3+0x5c8>
800031d4:	000a0513          	mv	a0,s4
800031d8:	00c12423          	sw	a2,8(sp)
800031dc:	70c000ef          	jal	ra,800038e8 <__clzsi2>
800031e0:	00812603          	lw	a2,8(sp)
800031e4:	00050793          	mv	a5,a0
800031e8:	ff550693          	addi	a3,a0,-11
800031ec:	01d00713          	li	a4,29
800031f0:	ff878593          	addi	a1,a5,-8
800031f4:	40d70733          	sub	a4,a4,a3
800031f8:	00ba1a33          	sll	s4,s4,a1
800031fc:	00e65733          	srl	a4,a2,a4
80003200:	01476733          	or	a4,a4,s4
80003204:	00b615b3          	sll	a1,a2,a1
80003208:	40f90933          	sub	s2,s2,a5
8000320c:	c0d90913          	addi	s2,s2,-1011
80003210:	00000513          	li	a0,0
80003214:	e5dff06f          	j	80003070 <__muldf3+0xb8>
80003218:	00a9e433          	or	s0,s3,a0
8000321c:	02041463          	bnez	s0,80003244 <__muldf3+0x28c>
80003220:	00800993          	li	s3,8
80003224:	00000493          	li	s1,0
80003228:	7ff00913          	li	s2,2047
8000322c:	00200b93          	li	s7,2
80003230:	df9ff06f          	j	80003028 <__muldf3+0x70>
80003234:	0019e993          	ori	s3,s3,1
80003238:	00000593          	li	a1,0
8000323c:	00100513          	li	a0,1
80003240:	e31ff06f          	j	80003070 <__muldf3+0xb8>
80003244:	00098413          	mv	s0,s3
80003248:	00050493          	mv	s1,a0
8000324c:	00c00993          	li	s3,12
80003250:	7ff00913          	li	s2,2047
80003254:	00300b93          	li	s7,3
80003258:	dd1ff06f          	j	80003028 <__muldf3+0x70>
8000325c:	00400993          	li	s3,4
80003260:	00000493          	li	s1,0
80003264:	00000913          	li	s2,0
80003268:	00100b93          	li	s7,1
8000326c:	dbdff06f          	j	80003028 <__muldf3+0x70>
80003270:	0039e993          	ori	s3,s3,3
80003274:	000a0713          	mv	a4,s4
80003278:	00300513          	li	a0,3
8000327c:	df5ff06f          	j	80003070 <__muldf3+0xb8>
80003280:	00200793          	li	a5,2
80003284:	000a8613          	mv	a2,s5
80003288:	eafb94e3          	bne	s7,a5,80003130 <__muldf3+0x178>
8000328c:	00060813          	mv	a6,a2
80003290:	7ff00793          	li	a5,2047
80003294:	00000413          	li	s0,0
80003298:	00000493          	li	s1,0
8000329c:	e31ff06f          	j	800030cc <__muldf3+0x114>
800032a0:	000109b7          	lui	s3,0x10
800032a4:	fff98e13          	addi	t3,s3,-1 # ffff <_tbss_end+0xffff>
800032a8:	01c4ff33          	and	t5,s1,t3
800032ac:	01c5fe33          	and	t3,a1,t3
800032b0:	0105df93          	srli	t6,a1,0x10
800032b4:	0104d313          	srli	t1,s1,0x10
800032b8:	000f0513          	mv	a0,t5
800032bc:	000e0593          	mv	a1,t3
800032c0:	550000ef          	jal	ra,80003810 <__mulsi3>
800032c4:	00050e93          	mv	t4,a0
800032c8:	000f8593          	mv	a1,t6
800032cc:	000f0513          	mv	a0,t5
800032d0:	540000ef          	jal	ra,80003810 <__mulsi3>
800032d4:	00050793          	mv	a5,a0
800032d8:	000e0593          	mv	a1,t3
800032dc:	00030513          	mv	a0,t1
800032e0:	530000ef          	jal	ra,80003810 <__mulsi3>
800032e4:	00050393          	mv	t2,a0
800032e8:	000f8593          	mv	a1,t6
800032ec:	00030513          	mv	a0,t1
800032f0:	520000ef          	jal	ra,80003810 <__mulsi3>
800032f4:	010ed693          	srli	a3,t4,0x10
800032f8:	007787b3          	add	a5,a5,t2
800032fc:	00f686b3          	add	a3,a3,a5
80003300:	00050293          	mv	t0,a0
80003304:	0076f463          	bgeu	a3,t2,8000330c <__muldf3+0x354>
80003308:	013502b3          	add	t0,a0,s3
8000330c:	000109b7          	lui	s3,0x10
80003310:	fff98a13          	addi	s4,s3,-1 # ffff <_tbss_end+0xffff>
80003314:	0146f4b3          	and	s1,a3,s4
80003318:	01049793          	slli	a5,s1,0x10
8000331c:	014ef4b3          	and	s1,t4,s4
80003320:	01477a33          	and	s4,a4,s4
80003324:	0106de93          	srli	t4,a3,0x10
80003328:	009784b3          	add	s1,a5,s1
8000332c:	01075713          	srli	a4,a4,0x10
80003330:	000f0513          	mv	a0,t5
80003334:	000a0593          	mv	a1,s4
80003338:	4d8000ef          	jal	ra,80003810 <__mulsi3>
8000333c:	00050393          	mv	t2,a0
80003340:	00070593          	mv	a1,a4
80003344:	000f0513          	mv	a0,t5
80003348:	4c8000ef          	jal	ra,80003810 <__mulsi3>
8000334c:	00050f13          	mv	t5,a0
80003350:	000a0593          	mv	a1,s4
80003354:	00030513          	mv	a0,t1
80003358:	4b8000ef          	jal	ra,80003810 <__mulsi3>
8000335c:	00050a93          	mv	s5,a0
80003360:	00070593          	mv	a1,a4
80003364:	00030513          	mv	a0,t1
80003368:	4a8000ef          	jal	ra,80003810 <__mulsi3>
8000336c:	0103d793          	srli	a5,t2,0x10
80003370:	015f0f33          	add	t5,t5,s5
80003374:	01e787b3          	add	a5,a5,t5
80003378:	0157f463          	bgeu	a5,s5,80003380 <__muldf3+0x3c8>
8000337c:	01350533          	add	a0,a0,s3
80003380:	00010ab7          	lui	s5,0x10
80003384:	fffa8693          	addi	a3,s5,-1 # ffff <_tbss_end+0xffff>
80003388:	00d7f333          	and	t1,a5,a3
8000338c:	01031313          	slli	t1,t1,0x10
80003390:	00d3f3b3          	and	t2,t2,a3
80003394:	007309b3          	add	s3,t1,t2
80003398:	0107d793          	srli	a5,a5,0x10
8000339c:	00d47333          	and	t1,s0,a3
800033a0:	00a78f33          	add	t5,a5,a0
800033a4:	013e8eb3          	add	t4,t4,s3
800033a8:	01045413          	srli	s0,s0,0x10
800033ac:	00030513          	mv	a0,t1
800033b0:	000e0593          	mv	a1,t3
800033b4:	45c000ef          	jal	ra,80003810 <__mulsi3>
800033b8:	00050793          	mv	a5,a0
800033bc:	000f8593          	mv	a1,t6
800033c0:	00030513          	mv	a0,t1
800033c4:	44c000ef          	jal	ra,80003810 <__mulsi3>
800033c8:	00050393          	mv	t2,a0
800033cc:	000e0593          	mv	a1,t3
800033d0:	00040513          	mv	a0,s0
800033d4:	43c000ef          	jal	ra,80003810 <__mulsi3>
800033d8:	00050e13          	mv	t3,a0
800033dc:	000f8593          	mv	a1,t6
800033e0:	00040513          	mv	a0,s0
800033e4:	42c000ef          	jal	ra,80003810 <__mulsi3>
800033e8:	0107d613          	srli	a2,a5,0x10
800033ec:	01c383b3          	add	t2,t2,t3
800033f0:	00760633          	add	a2,a2,t2
800033f4:	01c67463          	bgeu	a2,t3,800033fc <__muldf3+0x444>
800033f8:	01550533          	add	a0,a0,s5
800033fc:	00010ab7          	lui	s5,0x10
80003400:	fffa8393          	addi	t2,s5,-1 # ffff <_tbss_end+0xffff>
80003404:	007676b3          	and	a3,a2,t2
80003408:	01069693          	slli	a3,a3,0x10
8000340c:	01065613          	srli	a2,a2,0x10
80003410:	0077f7b3          	and	a5,a5,t2
80003414:	00a60fb3          	add	t6,a2,a0
80003418:	00f683b3          	add	t2,a3,a5
8000341c:	00030513          	mv	a0,t1
80003420:	000a0593          	mv	a1,s4
80003424:	3ec000ef          	jal	ra,80003810 <__mulsi3>
80003428:	00050e13          	mv	t3,a0
8000342c:	00070593          	mv	a1,a4
80003430:	00030513          	mv	a0,t1
80003434:	3dc000ef          	jal	ra,80003810 <__mulsi3>
80003438:	00050793          	mv	a5,a0
8000343c:	000a0593          	mv	a1,s4
80003440:	00040513          	mv	a0,s0
80003444:	3cc000ef          	jal	ra,80003810 <__mulsi3>
80003448:	00050313          	mv	t1,a0
8000344c:	00070593          	mv	a1,a4
80003450:	00040513          	mv	a0,s0
80003454:	3bc000ef          	jal	ra,80003810 <__mulsi3>
80003458:	010e5593          	srli	a1,t3,0x10
8000345c:	006787b3          	add	a5,a5,t1
80003460:	00f585b3          	add	a1,a1,a5
80003464:	0065f463          	bgeu	a1,t1,8000346c <__muldf3+0x4b4>
80003468:	01550533          	add	a0,a0,s5
8000346c:	00010737          	lui	a4,0x10
80003470:	fff70713          	addi	a4,a4,-1 # ffff <_tbss_end+0xffff>
80003474:	00e5f7b3          	and	a5,a1,a4
80003478:	00ee7e33          	and	t3,t3,a4
8000347c:	01079793          	slli	a5,a5,0x10
80003480:	005e8733          	add	a4,t4,t0
80003484:	01c787b3          	add	a5,a5,t3
80003488:	01373333          	sltu	t1,a4,s3
8000348c:	01e787b3          	add	a5,a5,t5
80003490:	00770733          	add	a4,a4,t2
80003494:	00678e33          	add	t3,a5,t1
80003498:	007736b3          	sltu	a3,a4,t2
8000349c:	01fe0633          	add	a2,t3,t6
800034a0:	00d60eb3          	add	t4,a2,a3
800034a4:	01e7b7b3          	sltu	a5,a5,t5
800034a8:	006e3333          	sltu	t1,t3,t1
800034ac:	0067e433          	or	s0,a5,t1
800034b0:	0105d593          	srli	a1,a1,0x10
800034b4:	01f63633          	sltu	a2,a2,t6
800034b8:	00deb6b3          	sltu	a3,t4,a3
800034bc:	00b40433          	add	s0,s0,a1
800034c0:	00d666b3          	or	a3,a2,a3
800034c4:	00971793          	slli	a5,a4,0x9
800034c8:	00d40433          	add	s0,s0,a3
800034cc:	00a40433          	add	s0,s0,a0
800034d0:	0097e4b3          	or	s1,a5,s1
800034d4:	00941413          	slli	s0,s0,0x9
800034d8:	017ed513          	srli	a0,t4,0x17
800034dc:	009034b3          	snez	s1,s1
800034e0:	01775713          	srli	a4,a4,0x17
800034e4:	009e9793          	slli	a5,t4,0x9
800034e8:	00e4e4b3          	or	s1,s1,a4
800034ec:	00a46433          	or	s0,s0,a0
800034f0:	00f4e4b3          	or	s1,s1,a5
800034f4:	00741793          	slli	a5,s0,0x7
800034f8:	0207d063          	bgez	a5,80003518 <__muldf3+0x560>
800034fc:	0014d793          	srli	a5,s1,0x1
80003500:	0014f493          	andi	s1,s1,1
80003504:	01f41713          	slli	a4,s0,0x1f
80003508:	0097e4b3          	or	s1,a5,s1
8000350c:	00e4e4b3          	or	s1,s1,a4
80003510:	00145413          	srli	s0,s0,0x1
80003514:	00088913          	mv	s2,a7
80003518:	3ff90793          	addi	a5,s2,1023
8000351c:	0cf05063          	blez	a5,800035dc <__muldf3+0x624>
80003520:	0074f713          	andi	a4,s1,7
80003524:	02070063          	beqz	a4,80003544 <__muldf3+0x58c>
80003528:	00f4f713          	andi	a4,s1,15
8000352c:	00400693          	li	a3,4
80003530:	00d70a63          	beq	a4,a3,80003544 <__muldf3+0x58c>
80003534:	00448713          	addi	a4,s1,4
80003538:	009734b3          	sltu	s1,a4,s1
8000353c:	00940433          	add	s0,s0,s1
80003540:	00070493          	mv	s1,a4
80003544:	00741713          	slli	a4,s0,0x7
80003548:	00075a63          	bgez	a4,8000355c <__muldf3+0x5a4>
8000354c:	ff0007b7          	lui	a5,0xff000
80003550:	fff78793          	addi	a5,a5,-1 # feffffff <_end+0x7eff8b6b>
80003554:	00f47433          	and	s0,s0,a5
80003558:	40090793          	addi	a5,s2,1024
8000355c:	7fe00713          	li	a4,2046
80003560:	14f74a63          	blt	a4,a5,800036b4 <__muldf3+0x6fc>
80003564:	0034d713          	srli	a4,s1,0x3
80003568:	01d41493          	slli	s1,s0,0x1d
8000356c:	00941413          	slli	s0,s0,0x9
80003570:	00e4e4b3          	or	s1,s1,a4
80003574:	00c45413          	srli	s0,s0,0xc
80003578:	7ff7f793          	andi	a5,a5,2047
8000357c:	b51ff06f          	j	800030cc <__muldf3+0x114>
80003580:	00060513          	mv	a0,a2
80003584:	00c12423          	sw	a2,8(sp)
80003588:	360000ef          	jal	ra,800038e8 <__clzsi2>
8000358c:	01550693          	addi	a3,a0,21
80003590:	01c00713          	li	a4,28
80003594:	02050793          	addi	a5,a0,32
80003598:	00812603          	lw	a2,8(sp)
8000359c:	c4d758e3          	bge	a4,a3,800031ec <__muldf3+0x234>
800035a0:	ff850513          	addi	a0,a0,-8
800035a4:	00a61733          	sll	a4,a2,a0
800035a8:	00000593          	li	a1,0
800035ac:	c5dff06f          	j	80003208 <__muldf3+0x250>
800035b0:	338000ef          	jal	ra,800038e8 <__clzsi2>
800035b4:	01550713          	addi	a4,a0,21
800035b8:	01c00593          	li	a1,28
800035bc:	02050793          	addi	a5,a0,32
800035c0:	00812603          	lw	a2,8(sp)
800035c4:	00c12683          	lw	a3,12(sp)
800035c8:	bae5dce3          	bge	a1,a4,80003180 <__muldf3+0x1c8>
800035cc:	ff850513          	addi	a0,a0,-8
800035d0:	00aa1433          	sll	s0,s4,a0
800035d4:	00000493          	li	s1,0
800035d8:	bc5ff06f          	j	8000319c <__muldf3+0x1e4>
800035dc:	00100713          	li	a4,1
800035e0:	40f70733          	sub	a4,a4,a5
800035e4:	06079063          	bnez	a5,80003644 <__muldf3+0x68c>
800035e8:	41e90913          	addi	s2,s2,1054
800035ec:	012497b3          	sll	a5,s1,s2
800035f0:	00e4d4b3          	srl	s1,s1,a4
800035f4:	01241933          	sll	s2,s0,s2
800035f8:	00f037b3          	snez	a5,a5
800035fc:	009964b3          	or	s1,s2,s1
80003600:	00f4e4b3          	or	s1,s1,a5
80003604:	0074f793          	andi	a5,s1,7
80003608:	00e45733          	srl	a4,s0,a4
8000360c:	02078063          	beqz	a5,8000362c <__muldf3+0x674>
80003610:	00f4f793          	andi	a5,s1,15
80003614:	00400693          	li	a3,4
80003618:	00d78a63          	beq	a5,a3,8000362c <__muldf3+0x674>
8000361c:	00448793          	addi	a5,s1,4
80003620:	0097b4b3          	sltu	s1,a5,s1
80003624:	00970733          	add	a4,a4,s1
80003628:	00078493          	mv	s1,a5
8000362c:	00871793          	slli	a5,a4,0x8
80003630:	0607d463          	bgez	a5,80003698 <__muldf3+0x6e0>
80003634:	00100793          	li	a5,1
80003638:	00000413          	li	s0,0
8000363c:	00000493          	li	s1,0
80003640:	a8dff06f          	j	800030cc <__muldf3+0x114>
80003644:	03800693          	li	a3,56
80003648:	aee6cee3          	blt	a3,a4,80003144 <__muldf3+0x18c>
8000364c:	01f00693          	li	a3,31
80003650:	f8e6dce3          	bge	a3,a4,800035e8 <__muldf3+0x630>
80003654:	fe100693          	li	a3,-31
80003658:	40f687b3          	sub	a5,a3,a5
8000365c:	02000613          	li	a2,32
80003660:	00f456b3          	srl	a3,s0,a5
80003664:	00c70863          	beq	a4,a2,80003674 <__muldf3+0x6bc>
80003668:	43e90913          	addi	s2,s2,1086
8000366c:	012417b3          	sll	a5,s0,s2
80003670:	00f4e4b3          	or	s1,s1,a5
80003674:	009034b3          	snez	s1,s1
80003678:	00d4e4b3          	or	s1,s1,a3
8000367c:	0074f713          	andi	a4,s1,7
80003680:	00000413          	li	s0,0
80003684:	02070063          	beqz	a4,800036a4 <__muldf3+0x6ec>
80003688:	00f4f793          	andi	a5,s1,15
8000368c:	00400693          	li	a3,4
80003690:	00000713          	li	a4,0
80003694:	f8d794e3          	bne	a5,a3,8000361c <__muldf3+0x664>
80003698:	00971413          	slli	s0,a4,0x9
8000369c:	00c45413          	srli	s0,s0,0xc
800036a0:	01d71713          	slli	a4,a4,0x1d
800036a4:	0034d493          	srli	s1,s1,0x3
800036a8:	00e4e4b3          	or	s1,s1,a4
800036ac:	00000793          	li	a5,0
800036b0:	a1dff06f          	j	800030cc <__muldf3+0x114>
800036b4:	7ff00793          	li	a5,2047
800036b8:	00000413          	li	s0,0
800036bc:	00000493          	li	s1,0
800036c0:	a0dff06f          	j	800030cc <__muldf3+0x114>
800036c4:	00088913          	mv	s2,a7
800036c8:	e51ff06f          	j	80003518 <__muldf3+0x560>

800036cc <__fixdfsi>:
800036cc:	0145d793          	srli	a5,a1,0x14
800036d0:	001006b7          	lui	a3,0x100
800036d4:	fff68713          	addi	a4,a3,-1 # fffff <_tbss_end+0xfffff>
800036d8:	7ff7f793          	andi	a5,a5,2047
800036dc:	3fe00613          	li	a2,1022
800036e0:	00b77733          	and	a4,a4,a1
800036e4:	01f5d593          	srli	a1,a1,0x1f
800036e8:	00f65e63          	bge	a2,a5,80003704 <__fixdfsi+0x38>
800036ec:	41d00613          	li	a2,1053
800036f0:	00f65e63          	bge	a2,a5,8000370c <__fixdfsi+0x40>
800036f4:	80000537          	lui	a0,0x80000
800036f8:	fff54513          	not	a0,a0
800036fc:	00a58533          	add	a0,a1,a0
80003700:	00008067          	ret
80003704:	00000513          	li	a0,0
80003708:	00008067          	ret
8000370c:	43300613          	li	a2,1075
80003710:	40f60633          	sub	a2,a2,a5
80003714:	01f00813          	li	a6,31
80003718:	00d76733          	or	a4,a4,a3
8000371c:	02c85063          	bge	a6,a2,8000373c <__fixdfsi+0x70>
80003720:	41300693          	li	a3,1043
80003724:	40f687b3          	sub	a5,a3,a5
80003728:	00f757b3          	srl	a5,a4,a5
8000372c:	40f00533          	neg	a0,a5
80003730:	fc059ce3          	bnez	a1,80003708 <__fixdfsi+0x3c>
80003734:	00078513          	mv	a0,a5
80003738:	00008067          	ret
8000373c:	bed78793          	addi	a5,a5,-1043
80003740:	00f717b3          	sll	a5,a4,a5
80003744:	00c55533          	srl	a0,a0,a2
80003748:	00a7e7b3          	or	a5,a5,a0
8000374c:	fe1ff06f          	j	8000372c <__fixdfsi+0x60>

80003750 <__floatsidf>:
80003750:	ff010113          	addi	sp,sp,-16
80003754:	00112623          	sw	ra,12(sp)
80003758:	00812423          	sw	s0,8(sp)
8000375c:	00912223          	sw	s1,4(sp)
80003760:	04050a63          	beqz	a0,800037b4 <__floatsidf+0x64>
80003764:	41f55793          	srai	a5,a0,0x1f
80003768:	00a7c4b3          	xor	s1,a5,a0
8000376c:	40f484b3          	sub	s1,s1,a5
80003770:	00050413          	mv	s0,a0
80003774:	00048513          	mv	a0,s1
80003778:	170000ef          	jal	ra,800038e8 <__clzsi2>
8000377c:	41e00693          	li	a3,1054
80003780:	40a686b3          	sub	a3,a3,a0
80003784:	00a00793          	li	a5,10
80003788:	01f45413          	srli	s0,s0,0x1f
8000378c:	7ff6f693          	andi	a3,a3,2047
80003790:	06a7c463          	blt	a5,a0,800037f8 <__floatsidf+0xa8>
80003794:	00b00713          	li	a4,11
80003798:	40a70733          	sub	a4,a4,a0
8000379c:	00e4d7b3          	srl	a5,s1,a4
800037a0:	01550513          	addi	a0,a0,21 # 80000015 <_end+0xffff8b81>
800037a4:	00c79793          	slli	a5,a5,0xc
800037a8:	00a494b3          	sll	s1,s1,a0
800037ac:	00c7d793          	srli	a5,a5,0xc
800037b0:	0140006f          	j	800037c4 <__floatsidf+0x74>
800037b4:	00000413          	li	s0,0
800037b8:	00000693          	li	a3,0
800037bc:	00000793          	li	a5,0
800037c0:	00000493          	li	s1,0
800037c4:	00c79793          	slli	a5,a5,0xc
800037c8:	01469693          	slli	a3,a3,0x14
800037cc:	00c7d793          	srli	a5,a5,0xc
800037d0:	01f41413          	slli	s0,s0,0x1f
800037d4:	00d7e7b3          	or	a5,a5,a3
800037d8:	0087e7b3          	or	a5,a5,s0
800037dc:	00c12083          	lw	ra,12(sp)
800037e0:	00812403          	lw	s0,8(sp)
800037e4:	00048513          	mv	a0,s1
800037e8:	00078593          	mv	a1,a5
800037ec:	00412483          	lw	s1,4(sp)
800037f0:	01010113          	addi	sp,sp,16
800037f4:	00008067          	ret
800037f8:	ff550513          	addi	a0,a0,-11
800037fc:	00a497b3          	sll	a5,s1,a0
80003800:	00c79793          	slli	a5,a5,0xc
80003804:	00c7d793          	srli	a5,a5,0xc
80003808:	00000493          	li	s1,0
8000380c:	fb9ff06f          	j	800037c4 <__floatsidf+0x74>

80003810 <__mulsi3>:
80003810:	00050613          	mv	a2,a0
80003814:	00000513          	li	a0,0
80003818:	0015f693          	andi	a3,a1,1
8000381c:	00068463          	beqz	a3,80003824 <__mulsi3+0x14>
80003820:	00c50533          	add	a0,a0,a2
80003824:	0015d593          	srli	a1,a1,0x1
80003828:	00161613          	slli	a2,a2,0x1
8000382c:	fe0596e3          	bnez	a1,80003818 <__mulsi3+0x8>
80003830:	00008067          	ret

80003834 <__divsi3>:
80003834:	06054063          	bltz	a0,80003894 <__umodsi3+0x10>
80003838:	0605c663          	bltz	a1,800038a4 <__umodsi3+0x20>

8000383c <__udivsi3>:
8000383c:	00058613          	mv	a2,a1
80003840:	00050593          	mv	a1,a0
80003844:	fff00513          	li	a0,-1
80003848:	02060c63          	beqz	a2,80003880 <__udivsi3+0x44>
8000384c:	00100693          	li	a3,1
80003850:	00b67a63          	bgeu	a2,a1,80003864 <__udivsi3+0x28>
80003854:	00c05863          	blez	a2,80003864 <__udivsi3+0x28>
80003858:	00161613          	slli	a2,a2,0x1
8000385c:	00169693          	slli	a3,a3,0x1
80003860:	feb66ae3          	bltu	a2,a1,80003854 <__udivsi3+0x18>
80003864:	00000513          	li	a0,0
80003868:	00c5e663          	bltu	a1,a2,80003874 <__udivsi3+0x38>
8000386c:	40c585b3          	sub	a1,a1,a2
80003870:	00d56533          	or	a0,a0,a3
80003874:	0016d693          	srli	a3,a3,0x1
80003878:	00165613          	srli	a2,a2,0x1
8000387c:	fe0696e3          	bnez	a3,80003868 <__udivsi3+0x2c>
80003880:	00008067          	ret

80003884 <__umodsi3>:
80003884:	00008293          	mv	t0,ra
80003888:	fb5ff0ef          	jal	ra,8000383c <__udivsi3>
8000388c:	00058513          	mv	a0,a1
80003890:	00028067          	jr	t0
80003894:	40a00533          	neg	a0,a0
80003898:	0005d863          	bgez	a1,800038a8 <__umodsi3+0x24>
8000389c:	40b005b3          	neg	a1,a1
800038a0:	f9dff06f          	j	8000383c <__udivsi3>
800038a4:	40b005b3          	neg	a1,a1
800038a8:	00008293          	mv	t0,ra
800038ac:	f91ff0ef          	jal	ra,8000383c <__udivsi3>
800038b0:	40a00533          	neg	a0,a0
800038b4:	00028067          	jr	t0

800038b8 <__modsi3>:
800038b8:	00008293          	mv	t0,ra
800038bc:	0005ca63          	bltz	a1,800038d0 <__modsi3+0x18>
800038c0:	00054c63          	bltz	a0,800038d8 <__modsi3+0x20>
800038c4:	f79ff0ef          	jal	ra,8000383c <__udivsi3>
800038c8:	00058513          	mv	a0,a1
800038cc:	00028067          	jr	t0
800038d0:	40b005b3          	neg	a1,a1
800038d4:	fe0558e3          	bgez	a0,800038c4 <__modsi3+0xc>
800038d8:	40a00533          	neg	a0,a0
800038dc:	f61ff0ef          	jal	ra,8000383c <__udivsi3>
800038e0:	40b00533          	neg	a0,a1
800038e4:	00028067          	jr	t0

800038e8 <__clzsi2>:
800038e8:	000107b7          	lui	a5,0x10
800038ec:	04f57463          	bgeu	a0,a5,80003934 <__clzsi2+0x4c>
800038f0:	0ff00793          	li	a5,255
800038f4:	02000713          	li	a4,32
800038f8:	00a7ee63          	bltu	a5,a0,80003914 <__clzsi2+0x2c>
800038fc:	00001797          	auipc	a5,0x1
80003900:	9907a783          	lw	a5,-1648(a5) # 8000428c <_GLOBAL_OFFSET_TABLE_+0x4>
80003904:	00a787b3          	add	a5,a5,a0
80003908:	0007c503          	lbu	a0,0(a5)
8000390c:	40a70533          	sub	a0,a4,a0
80003910:	00008067          	ret
80003914:	00855513          	srli	a0,a0,0x8
80003918:	00001797          	auipc	a5,0x1
8000391c:	9747a783          	lw	a5,-1676(a5) # 8000428c <_GLOBAL_OFFSET_TABLE_+0x4>
80003920:	00a787b3          	add	a5,a5,a0
80003924:	0007c503          	lbu	a0,0(a5)
80003928:	01800713          	li	a4,24
8000392c:	40a70533          	sub	a0,a4,a0
80003930:	00008067          	ret
80003934:	010007b7          	lui	a5,0x1000
80003938:	02f56263          	bltu	a0,a5,8000395c <__clzsi2+0x74>
8000393c:	01855513          	srli	a0,a0,0x18
80003940:	00001797          	auipc	a5,0x1
80003944:	94c7a783          	lw	a5,-1716(a5) # 8000428c <_GLOBAL_OFFSET_TABLE_+0x4>
80003948:	00a787b3          	add	a5,a5,a0
8000394c:	0007c503          	lbu	a0,0(a5)
80003950:	00800713          	li	a4,8
80003954:	40a70533          	sub	a0,a4,a0
80003958:	00008067          	ret
8000395c:	01055513          	srli	a0,a0,0x10
80003960:	00001797          	auipc	a5,0x1
80003964:	92c7a783          	lw	a5,-1748(a5) # 8000428c <_GLOBAL_OFFSET_TABLE_+0x4>
80003968:	00a787b3          	add	a5,a5,a0
8000396c:	0007c503          	lbu	a0,0(a5)
80003970:	01000713          	li	a4,16
80003974:	40a70533          	sub	a0,a4,a0
80003978:	00008067          	ret

8000397c <main>:
8000397c:	f6010113          	addi	sp,sp,-160
80003980:	08112e23          	sw	ra,156(sp)
80003984:	08812c23          	sw	s0,152(sp)
80003988:	08912a23          	sw	s1,148(sp)
8000398c:	0a010413          	addi	s0,sp,160
80003990:	09212823          	sw	s2,144(sp)
80003994:	09312623          	sw	s3,140(sp)
80003998:	09412423          	sw	s4,136(sp)
8000399c:	09512223          	sw	s5,132(sp)
800039a0:	09612023          	sw	s6,128(sp)
800039a4:	07712e23          	sw	s7,124(sp)
800039a8:	07812c23          	sw	s8,120(sp)
800039ac:	07912a23          	sw	s9,116(sp)
800039b0:	07a12823          	sw	s10,112(sp)
800039b4:	07b12623          	sw	s11,108(sp)
800039b8:	fc010113          	addi	sp,sp,-64
800039bc:	00001717          	auipc	a4,0x1
800039c0:	8e470713          	addi	a4,a4,-1820 # 800042a0 <_GLOBAL_OFFSET_TABLE_+0x18>
800039c4:	00f10613          	addi	a2,sp,15
800039c8:	fc010113          	addi	sp,sp,-64
800039cc:	00001797          	auipc	a5,0x1
800039d0:	e1c78793          	addi	a5,a5,-484 # 800047e8 <_GLOBAL_OFFSET_TABLE_+0x560>
800039d4:	00872f83          	lw	t6,8(a4)
800039d8:	00c72f03          	lw	t5,12(a4)
800039dc:	01072e83          	lw	t4,16(a4)
800039e0:	01472e03          	lw	t3,20(a4)
800039e4:	01872303          	lw	t1,24(a4)
800039e8:	00072683          	lw	a3,0(a4)
800039ec:	00472283          	lw	t0,4(a4)
800039f0:	01c75883          	lhu	a7,28(a4)
800039f4:	01e74803          	lbu	a6,30(a4)
800039f8:	00f10713          	addi	a4,sp,15
800039fc:	ff077713          	andi	a4,a4,-16
80003a00:	0007a583          	lw	a1,0(a5)
80003a04:	00200393          	li	t2,2
80003a08:	ff067613          	andi	a2,a2,-16
80003a0c:	00772423          	sw	t2,8(a4)
80003a10:	02800393          	li	t2,40
80003a14:	00772623          	sw	t2,12(a4)
80003a18:	00c72023          	sw	a2,0(a4)
80003a1c:	00d72823          	sw	a3,16(a4)
80003a20:	00001397          	auipc	t2,0x1
80003a24:	28c3a623          	sw	a2,652(t2) # 80004cac <Next_Ptr_Glob>
80003a28:	00072223          	sw	zero,4(a4)
80003a2c:	00001617          	auipc	a2,0x1
80003a30:	28e62223          	sw	a4,644(a2) # 80004cb0 <Ptr_Glob>
80003a34:	0047a503          	lw	a0,4(a5)
80003a38:	00572a23          	sw	t0,20(a4)
80003a3c:	0147a603          	lw	a2,20(a5)
80003a40:	0187a683          	lw	a3,24(a5)
80003a44:	01f72c23          	sw	t6,24(a4)
80003a48:	01e72e23          	sw	t5,28(a4)
80003a4c:	03d72023          	sw	t4,32(a4)
80003a50:	03c72223          	sw	t3,36(a4)
80003a54:	02672423          	sw	t1,40(a4)
80003a58:	03171623          	sh	a7,44(a4)
80003a5c:	03070723          	sb	a6,46(a4)
80003a60:	0087a883          	lw	a7,8(a5)
80003a64:	01c7d703          	lhu	a4,28(a5)
80003a68:	00c7a803          	lw	a6,12(a5)
80003a6c:	f8b42023          	sw	a1,-128(s0) # 7ff80 <_tbss_end+0x7ff80>
80003a70:	0107a583          	lw	a1,16(a5)
80003a74:	01e7c783          	lbu	a5,30(a5)
80003a78:	f8a42223          	sw	a0,-124(s0)
80003a7c:	00001517          	auipc	a0,0x1
80003a80:	a9050513          	addi	a0,a0,-1392 # 8000450c <_GLOBAL_OFFSET_TABLE_+0x284>
80003a84:	f8f40f23          	sb	a5,-98(s0)
80003a88:	00a00793          	li	a5,10
80003a8c:	f8e41e23          	sh	a4,-100(s0)
80003a90:	f9142423          	sw	a7,-120(s0)
80003a94:	00002717          	auipc	a4,0x2
80003a98:	94f72623          	sw	a5,-1716(a4) # 800053e0 <Arr_2_Glob+0x65c>
80003a9c:	f9042623          	sw	a6,-116(s0)
80003aa0:	f8b42823          	sw	a1,-112(s0)
80003aa4:	f8c42a23          	sw	a2,-108(s0)
80003aa8:	f8d42c23          	sw	a3,-104(s0)
80003aac:	b2cfd0ef          	jal	ra,80000dd8 <printf>
80003ab0:	00001597          	auipc	a1,0x1
80003ab4:	81058593          	addi	a1,a1,-2032 # 800042c0 <_GLOBAL_OFFSET_TABLE_+0x38>
80003ab8:	00001517          	auipc	a0,0x1
80003abc:	81850513          	addi	a0,a0,-2024 # 800042d0 <_GLOBAL_OFFSET_TABLE_+0x48>
80003ac0:	b18fd0ef          	jal	ra,80000dd8 <printf>
80003ac4:	00001797          	auipc	a5,0x1
80003ac8:	1d878793          	addi	a5,a5,472 # 80004c9c <Reg>
80003acc:	0007a783          	lw	a5,0(a5)
80003ad0:	70078663          	beqz	a5,800041dc <main+0x860>
80003ad4:	00001517          	auipc	a0,0x1
80003ad8:	82050513          	addi	a0,a0,-2016 # 800042f4 <_GLOBAL_OFFSET_TABLE_+0x6c>
80003adc:	afcfd0ef          	jal	ra,80000dd8 <printf>
80003ae0:	000f4637          	lui	a2,0xf4
80003ae4:	24060613          	addi	a2,a2,576 # f4240 <_tbss_end+0xf4240>
80003ae8:	00001597          	auipc	a1,0x1
80003aec:	86858593          	addi	a1,a1,-1944 # 80004350 <_GLOBAL_OFFSET_TABLE_+0xc8>
80003af0:	00001517          	auipc	a0,0x1
80003af4:	86c50513          	addi	a0,a0,-1940 # 8000435c <_GLOBAL_OFFSET_TABLE_+0xd4>
80003af8:	ae0fd0ef          	jal	ra,80000dd8 <printf>
80003afc:	00001517          	auipc	a0,0x1
80003b00:	a1050513          	addi	a0,a0,-1520 # 8000450c <_GLOBAL_OFFSET_TABLE_+0x284>
80003b04:	ad4fd0ef          	jal	ra,80000dd8 <printf>
80003b08:	1f400793          	li	a5,500
80003b0c:	f6f42623          	sw	a5,-148(s0)
80003b10:	00001997          	auipc	s3,0x1
80003b14:	cf898993          	addi	s3,s3,-776 # 80004808 <_GLOBAL_OFFSET_TABLE_+0x580>
80003b18:	00001797          	auipc	a5,0x1
80003b1c:	1807a023          	sw	zero,384(a5) # 80004c98 <Done>
80003b20:	00001c97          	auipc	s9,0x1
80003b24:	190c8c93          	addi	s9,s9,400 # 80004cb0 <Ptr_Glob>
80003b28:	00001d97          	auipc	s11,0x1
80003b2c:	25cd8d93          	addi	s11,s11,604 # 80004d84 <Arr_2_Glob>
80003b30:	00001497          	auipc	s1,0x1
80003b34:	cf848493          	addi	s1,s1,-776 # 80004828 <_GLOBAL_OFFSET_TABLE_+0x5a0>
80003b38:	f6c42903          	lw	s2,-148(s0)
80003b3c:	00001517          	auipc	a0,0x1
80003b40:	83450513          	addi	a0,a0,-1996 # 80004370 <_GLOBAL_OFFSET_TABLE_+0xe8>
80003b44:	00090593          	mv	a1,s2
80003b48:	a90fd0ef          	jal	ra,80000dd8 <printf>
80003b4c:	00100513          	li	a0,1
80003b50:	9c0fd0ef          	jal	ra,80000d10 <setStats>
80003b54:	c00027f3          	rdcycle	a5
80003b58:	00100a13          	li	s4,1
80003b5c:	00190c13          	addi	s8,s2,1
80003b60:	00001717          	auipc	a4,0x1
80003b64:	12f72a23          	sw	a5,308(a4) # 80004c94 <Begin_Time>
80003b68:	00200913          	li	s2,2
80003b6c:	00100b93          	li	s7,1
80003b70:	891fc0ef          	jal	ra,80000400 <Proc_5>
80003b74:	859fc0ef          	jal	ra,800003cc <Proc_4>
80003b78:	0149a603          	lw	a2,20(s3)
80003b7c:	01e9c783          	lbu	a5,30(s3)
80003b80:	0009ae83          	lw	t4,0(s3)
80003b84:	0049ae03          	lw	t3,4(s3)
80003b88:	0089a303          	lw	t1,8(s3)
80003b8c:	00c9a883          	lw	a7,12(s3)
80003b90:	0109a803          	lw	a6,16(s3)
80003b94:	0189a683          	lw	a3,24(s3)
80003b98:	01c9d703          	lhu	a4,28(s3)
80003b9c:	fa040593          	addi	a1,s0,-96
80003ba0:	f8040513          	addi	a0,s0,-128
80003ba4:	fac42a23          	sw	a2,-76(s0)
80003ba8:	faf40f23          	sb	a5,-66(s0)
80003bac:	f7242a23          	sw	s2,-140(s0)
80003bb0:	fbd42023          	sw	t4,-96(s0)
80003bb4:	fbc42223          	sw	t3,-92(s0)
80003bb8:	fa642423          	sw	t1,-88(s0)
80003bbc:	fb142623          	sw	a7,-84(s0)
80003bc0:	fb042823          	sw	a6,-80(s0)
80003bc4:	fad42c23          	sw	a3,-72(s0)
80003bc8:	fae41e23          	sh	a4,-68(s0)
80003bcc:	f7742e23          	sw	s7,-132(s0)
80003bd0:	8f1fc0ef          	jal	ra,800004c0 <Func_2>
80003bd4:	f7442603          	lw	a2,-140(s0)
80003bd8:	00153513          	seqz	a0,a0
80003bdc:	00001797          	auipc	a5,0x1
80003be0:	0ca7a423          	sw	a0,200(a5) # 80004ca4 <Bool_Glob>
80003be4:	02c94a63          	blt	s2,a2,80003c18 <main+0x29c>
80003be8:	00261793          	slli	a5,a2,0x2
80003bec:	00c787b3          	add	a5,a5,a2
80003bf0:	ffd78793          	addi	a5,a5,-3
80003bf4:	00060513          	mv	a0,a2
80003bf8:	00300593          	li	a1,3
80003bfc:	f7840613          	addi	a2,s0,-136
80003c00:	f6f42c23          	sw	a5,-136(s0)
80003c04:	815fc0ef          	jal	ra,80000418 <Proc_7>
80003c08:	f7442603          	lw	a2,-140(s0)
80003c0c:	00160613          	addi	a2,a2,1
80003c10:	f6c42a23          	sw	a2,-140(s0)
80003c14:	fcc95ae3          	bge	s2,a2,80003be8 <main+0x26c>
80003c18:	f7842683          	lw	a3,-136(s0)
80003c1c:	000d8593          	mv	a1,s11
80003c20:	00001517          	auipc	a0,0x1
80003c24:	09c50513          	addi	a0,a0,156 # 80004cbc <Arr_1_Glob>
80003c28:	801fc0ef          	jal	ra,80000428 <Proc_8>
80003c2c:	000ca503          	lw	a0,0(s9)
80003c30:	e38fc0ef          	jal	ra,80000268 <Proc_1>
80003c34:	00001717          	auipc	a4,0x1
80003c38:	06c74703          	lbu	a4,108(a4) # 80004ca0 <Ch_2_Glob>
80003c3c:	04000793          	li	a5,64
80003c40:	54e7fa63          	bgeu	a5,a4,80004194 <main+0x818>
80003c44:	04100b13          	li	s6,65
80003c48:	00300a93          	li	s5,3
80003c4c:	0180006f          	j	80003c64 <main+0x2e8>
80003c50:	001b0b13          	addi	s6,s6,1
80003c54:	0ffb7b13          	andi	s6,s6,255
80003c58:	00001797          	auipc	a5,0x1
80003c5c:	0487c783          	lbu	a5,72(a5) # 80004ca0 <Ch_2_Glob>
80003c60:	0967e663          	bltu	a5,s6,80003cec <main+0x370>
80003c64:	04300593          	li	a1,67
80003c68:	000b0513          	mv	a0,s6
80003c6c:	831fc0ef          	jal	ra,8000049c <Func_1>
80003c70:	f7c42783          	lw	a5,-132(s0)
80003c74:	fcf51ee3          	bne	a0,a5,80003c50 <main+0x2d4>
80003c78:	f7c40593          	addi	a1,s0,-132
80003c7c:	00000513          	li	a0,0
80003c80:	8b1fc0ef          	jal	ra,80000530 <Proc_6>
80003c84:	01e4c783          	lbu	a5,30(s1)
80003c88:	0004a303          	lw	t1,0(s1)
80003c8c:	0044a883          	lw	a7,4(s1)
80003c90:	0084a803          	lw	a6,8(s1)
80003c94:	00c4a503          	lw	a0,12(s1)
80003c98:	0104a583          	lw	a1,16(s1)
80003c9c:	0144a603          	lw	a2,20(s1)
80003ca0:	0184a683          	lw	a3,24(s1)
80003ca4:	01c4d703          	lhu	a4,28(s1)
80003ca8:	faf40f23          	sb	a5,-66(s0)
80003cac:	001b0b13          	addi	s6,s6,1
80003cb0:	00001797          	auipc	a5,0x1
80003cb4:	ff47ac23          	sw	s4,-8(a5) # 80004ca8 <Int_Glob>
80003cb8:	fa642023          	sw	t1,-96(s0)
80003cbc:	fb142223          	sw	a7,-92(s0)
80003cc0:	fb042423          	sw	a6,-88(s0)
80003cc4:	faa42623          	sw	a0,-84(s0)
80003cc8:	fab42823          	sw	a1,-80(s0)
80003ccc:	fac42a23          	sw	a2,-76(s0)
80003cd0:	fad42c23          	sw	a3,-72(s0)
80003cd4:	fae41e23          	sh	a4,-68(s0)
80003cd8:	0ffb7b13          	andi	s6,s6,255
80003cdc:	00001797          	auipc	a5,0x1
80003ce0:	fc47c783          	lbu	a5,-60(a5) # 80004ca0 <Ch_2_Glob>
80003ce4:	000a0a93          	mv	s5,s4
80003ce8:	f767fee3          	bgeu	a5,s6,80003c64 <main+0x2e8>
80003cec:	f7442583          	lw	a1,-140(s0)
80003cf0:	000a8513          	mv	a0,s5
80003cf4:	001a0a13          	addi	s4,s4,1
80003cf8:	b19ff0ef          	jal	ra,80003810 <__mulsi3>
80003cfc:	f7842b03          	lw	s6,-136(s0)
80003d00:	00050d13          	mv	s10,a0
80003d04:	000b0593          	mv	a1,s6
80003d08:	b2dff0ef          	jal	ra,80003834 <__divsi3>
80003d0c:	00050a93          	mv	s5,a0
80003d10:	f7440513          	addi	a0,s0,-140
80003d14:	f7542a23          	sw	s5,-140(s0)
80003d18:	ce8fc0ef          	jal	ra,80000200 <Proc_2>
80003d1c:	e58a1ae3          	bne	s4,s8,80003b70 <main+0x1f4>
80003d20:	c00027f3          	rdcycle	a5
80003d24:	00000513          	li	a0,0
80003d28:	00001717          	auipc	a4,0x1
80003d2c:	f6f72423          	sw	a5,-152(a4) # 80004c90 <End_Time>
80003d30:	fe1fc0ef          	jal	ra,80000d10 <setStats>
80003d34:	00001797          	auipc	a5,0x1
80003d38:	f5c78793          	addi	a5,a5,-164 # 80004c90 <End_Time>
80003d3c:	00001717          	auipc	a4,0x1
80003d40:	f5870713          	addi	a4,a4,-168 # 80004c94 <Begin_Time>
80003d44:	00072703          	lw	a4,0(a4)
80003d48:	0007a783          	lw	a5,0(a5)
80003d4c:	40e787b3          	sub	a5,a5,a4
80003d50:	00001717          	auipc	a4,0x1
80003d54:	f2f72e23          	sw	a5,-196(a4) # 80004c8c <User_Time>
80003d58:	44f05263          	blez	a5,8000419c <main+0x820>
80003d5c:	00100793          	li	a5,1
80003d60:	00001717          	auipc	a4,0x1
80003d64:	f2f72c23          	sw	a5,-200(a4) # 80004c98 <Done>
80003d68:	00000517          	auipc	a0,0x0
80003d6c:	66450513          	addi	a0,a0,1636 # 800043cc <_GLOBAL_OFFSET_TABLE_+0x144>
80003d70:	868fd0ef          	jal	ra,80000dd8 <printf>
80003d74:	00000517          	auipc	a0,0x0
80003d78:	79850513          	addi	a0,a0,1944 # 8000450c <_GLOBAL_OFFSET_TABLE_+0x284>
80003d7c:	85cfd0ef          	jal	ra,80000dd8 <printf>
80003d80:	00001797          	auipc	a5,0x1
80003d84:	f2878793          	addi	a5,a5,-216 # 80004ca8 <Int_Glob>
80003d88:	0007a583          	lw	a1,0(a5)
80003d8c:	00000517          	auipc	a0,0x0
80003d90:	67850513          	addi	a0,a0,1656 # 80004404 <_GLOBAL_OFFSET_TABLE_+0x17c>
80003d94:	00001497          	auipc	s1,0x1
80003d98:	f1848493          	addi	s1,s1,-232 # 80004cac <Next_Ptr_Glob>
80003d9c:	83cfd0ef          	jal	ra,80000dd8 <printf>
80003da0:	00500593          	li	a1,5
80003da4:	00000517          	auipc	a0,0x0
80003da8:	67c50513          	addi	a0,a0,1660 # 80004420 <_GLOBAL_OFFSET_TABLE_+0x198>
80003dac:	82cfd0ef          	jal	ra,80000dd8 <printf>
80003db0:	00001797          	auipc	a5,0x1
80003db4:	ef478793          	addi	a5,a5,-268 # 80004ca4 <Bool_Glob>
80003db8:	0007a583          	lw	a1,0(a5)
80003dbc:	00000517          	auipc	a0,0x0
80003dc0:	68050513          	addi	a0,a0,1664 # 8000443c <_GLOBAL_OFFSET_TABLE_+0x1b4>
80003dc4:	416d0b33          	sub	s6,s10,s6
80003dc8:	810fd0ef          	jal	ra,80000dd8 <printf>
80003dcc:	00100593          	li	a1,1
80003dd0:	00000517          	auipc	a0,0x0
80003dd4:	65050513          	addi	a0,a0,1616 # 80004420 <_GLOBAL_OFFSET_TABLE_+0x198>
80003dd8:	800fd0ef          	jal	ra,80000dd8 <printf>
80003ddc:	00001597          	auipc	a1,0x1
80003de0:	ec55c583          	lbu	a1,-315(a1) # 80004ca1 <Ch_1_Glob>
80003de4:	00000517          	auipc	a0,0x0
80003de8:	67450513          	addi	a0,a0,1652 # 80004458 <_GLOBAL_OFFSET_TABLE_+0x1d0>
80003dec:	fedfc0ef          	jal	ra,80000dd8 <printf>
80003df0:	04100593          	li	a1,65
80003df4:	00000517          	auipc	a0,0x0
80003df8:	68050513          	addi	a0,a0,1664 # 80004474 <_GLOBAL_OFFSET_TABLE_+0x1ec>
80003dfc:	fddfc0ef          	jal	ra,80000dd8 <printf>
80003e00:	00001597          	auipc	a1,0x1
80003e04:	ea05c583          	lbu	a1,-352(a1) # 80004ca0 <Ch_2_Glob>
80003e08:	00000517          	auipc	a0,0x0
80003e0c:	68850513          	addi	a0,a0,1672 # 80004490 <_GLOBAL_OFFSET_TABLE_+0x208>
80003e10:	fc9fc0ef          	jal	ra,80000dd8 <printf>
80003e14:	04200593          	li	a1,66
80003e18:	00000517          	auipc	a0,0x0
80003e1c:	65c50513          	addi	a0,a0,1628 # 80004474 <_GLOBAL_OFFSET_TABLE_+0x1ec>
80003e20:	fb9fc0ef          	jal	ra,80000dd8 <printf>
80003e24:	00001797          	auipc	a5,0x1
80003e28:	e9878793          	addi	a5,a5,-360 # 80004cbc <Arr_1_Glob>
80003e2c:	0207a583          	lw	a1,32(a5)
80003e30:	00000517          	auipc	a0,0x0
80003e34:	67c50513          	addi	a0,a0,1660 # 800044ac <_GLOBAL_OFFSET_TABLE_+0x224>
80003e38:	00000997          	auipc	s3,0x0
80003e3c:	46098993          	addi	s3,s3,1120 # 80004298 <_GLOBAL_OFFSET_TABLE_+0x10>
80003e40:	f99fc0ef          	jal	ra,80000dd8 <printf>
80003e44:	00700593          	li	a1,7
80003e48:	00000517          	auipc	a0,0x0
80003e4c:	5d850513          	addi	a0,a0,1496 # 80004420 <_GLOBAL_OFFSET_TABLE_+0x198>
80003e50:	f89fc0ef          	jal	ra,80000dd8 <printf>
80003e54:	00001797          	auipc	a5,0x1
80003e58:	f3078793          	addi	a5,a5,-208 # 80004d84 <Arr_2_Glob>
80003e5c:	65c7a583          	lw	a1,1628(a5)
80003e60:	00000517          	auipc	a0,0x0
80003e64:	66850513          	addi	a0,a0,1640 # 800044c8 <_GLOBAL_OFFSET_TABLE_+0x240>
80003e68:	f71fc0ef          	jal	ra,80000dd8 <printf>
80003e6c:	00000517          	auipc	a0,0x0
80003e70:	67850513          	addi	a0,a0,1656 # 800044e4 <_GLOBAL_OFFSET_TABLE_+0x25c>
80003e74:	f65fc0ef          	jal	ra,80000dd8 <printf>
80003e78:	00000517          	auipc	a0,0x0
80003e7c:	69850513          	addi	a0,a0,1688 # 80004510 <_GLOBAL_OFFSET_TABLE_+0x288>
80003e80:	f59fc0ef          	jal	ra,80000dd8 <printf>
80003e84:	000ca783          	lw	a5,0(s9)
80003e88:	00000517          	auipc	a0,0x0
80003e8c:	69450513          	addi	a0,a0,1684 # 8000451c <_GLOBAL_OFFSET_TABLE_+0x294>
80003e90:	0007a583          	lw	a1,0(a5)
80003e94:	f45fc0ef          	jal	ra,80000dd8 <printf>
80003e98:	00000517          	auipc	a0,0x0
80003e9c:	6a050513          	addi	a0,a0,1696 # 80004538 <_GLOBAL_OFFSET_TABLE_+0x2b0>
80003ea0:	f39fc0ef          	jal	ra,80000dd8 <printf>
80003ea4:	000ca783          	lw	a5,0(s9)
80003ea8:	00000517          	auipc	a0,0x0
80003eac:	6c450513          	addi	a0,a0,1732 # 8000456c <_GLOBAL_OFFSET_TABLE_+0x2e4>
80003eb0:	0047a583          	lw	a1,4(a5)
80003eb4:	f25fc0ef          	jal	ra,80000dd8 <printf>
80003eb8:	00000593          	li	a1,0
80003ebc:	00000517          	auipc	a0,0x0
80003ec0:	56450513          	addi	a0,a0,1380 # 80004420 <_GLOBAL_OFFSET_TABLE_+0x198>
80003ec4:	f15fc0ef          	jal	ra,80000dd8 <printf>
80003ec8:	000ca783          	lw	a5,0(s9)
80003ecc:	00000517          	auipc	a0,0x0
80003ed0:	6bc50513          	addi	a0,a0,1724 # 80004588 <_GLOBAL_OFFSET_TABLE_+0x300>
80003ed4:	0087a583          	lw	a1,8(a5)
80003ed8:	f01fc0ef          	jal	ra,80000dd8 <printf>
80003edc:	00200593          	li	a1,2
80003ee0:	00000517          	auipc	a0,0x0
80003ee4:	54050513          	addi	a0,a0,1344 # 80004420 <_GLOBAL_OFFSET_TABLE_+0x198>
80003ee8:	ef1fc0ef          	jal	ra,80000dd8 <printf>
80003eec:	000ca783          	lw	a5,0(s9)
80003ef0:	00000517          	auipc	a0,0x0
80003ef4:	6b450513          	addi	a0,a0,1716 # 800045a4 <_GLOBAL_OFFSET_TABLE_+0x31c>
80003ef8:	00c7a583          	lw	a1,12(a5)
80003efc:	eddfc0ef          	jal	ra,80000dd8 <printf>
80003f00:	01100593          	li	a1,17
80003f04:	00000517          	auipc	a0,0x0
80003f08:	51c50513          	addi	a0,a0,1308 # 80004420 <_GLOBAL_OFFSET_TABLE_+0x198>
80003f0c:	ecdfc0ef          	jal	ra,80000dd8 <printf>
80003f10:	000ca583          	lw	a1,0(s9)
80003f14:	00000517          	auipc	a0,0x0
80003f18:	6ac50513          	addi	a0,a0,1708 # 800045c0 <_GLOBAL_OFFSET_TABLE_+0x338>
80003f1c:	01058593          	addi	a1,a1,16
80003f20:	eb9fc0ef          	jal	ra,80000dd8 <printf>
80003f24:	00000517          	auipc	a0,0x0
80003f28:	6b850513          	addi	a0,a0,1720 # 800045dc <_GLOBAL_OFFSET_TABLE_+0x354>
80003f2c:	eadfc0ef          	jal	ra,80000dd8 <printf>
80003f30:	00000517          	auipc	a0,0x0
80003f34:	6e450513          	addi	a0,a0,1764 # 80004614 <_GLOBAL_OFFSET_TABLE_+0x38c>
80003f38:	ea1fc0ef          	jal	ra,80000dd8 <printf>
80003f3c:	0004a783          	lw	a5,0(s1)
80003f40:	00000517          	auipc	a0,0x0
80003f44:	5dc50513          	addi	a0,a0,1500 # 8000451c <_GLOBAL_OFFSET_TABLE_+0x294>
80003f48:	0007a583          	lw	a1,0(a5)
80003f4c:	e8dfc0ef          	jal	ra,80000dd8 <printf>
80003f50:	00000517          	auipc	a0,0x0
80003f54:	6d850513          	addi	a0,a0,1752 # 80004628 <_GLOBAL_OFFSET_TABLE_+0x3a0>
80003f58:	e81fc0ef          	jal	ra,80000dd8 <printf>
80003f5c:	0004a783          	lw	a5,0(s1)
80003f60:	00000517          	auipc	a0,0x0
80003f64:	60c50513          	addi	a0,a0,1548 # 8000456c <_GLOBAL_OFFSET_TABLE_+0x2e4>
80003f68:	0047a583          	lw	a1,4(a5)
80003f6c:	e6dfc0ef          	jal	ra,80000dd8 <printf>
80003f70:	00000593          	li	a1,0
80003f74:	00000517          	auipc	a0,0x0
80003f78:	4ac50513          	addi	a0,a0,1196 # 80004420 <_GLOBAL_OFFSET_TABLE_+0x198>
80003f7c:	e5dfc0ef          	jal	ra,80000dd8 <printf>
80003f80:	0004a783          	lw	a5,0(s1)
80003f84:	00000517          	auipc	a0,0x0
80003f88:	60450513          	addi	a0,a0,1540 # 80004588 <_GLOBAL_OFFSET_TABLE_+0x300>
80003f8c:	0087a583          	lw	a1,8(a5)
80003f90:	e49fc0ef          	jal	ra,80000dd8 <printf>
80003f94:	00100593          	li	a1,1
80003f98:	00000517          	auipc	a0,0x0
80003f9c:	48850513          	addi	a0,a0,1160 # 80004420 <_GLOBAL_OFFSET_TABLE_+0x198>
80003fa0:	e39fc0ef          	jal	ra,80000dd8 <printf>
80003fa4:	0004a783          	lw	a5,0(s1)
80003fa8:	00000517          	auipc	a0,0x0
80003fac:	5fc50513          	addi	a0,a0,1532 # 800045a4 <_GLOBAL_OFFSET_TABLE_+0x31c>
80003fb0:	00c7a583          	lw	a1,12(a5)
80003fb4:	e25fc0ef          	jal	ra,80000dd8 <printf>
80003fb8:	01200593          	li	a1,18
80003fbc:	00000517          	auipc	a0,0x0
80003fc0:	46450513          	addi	a0,a0,1124 # 80004420 <_GLOBAL_OFFSET_TABLE_+0x198>
80003fc4:	e15fc0ef          	jal	ra,80000dd8 <printf>
80003fc8:	0004a583          	lw	a1,0(s1)
80003fcc:	00000517          	auipc	a0,0x0
80003fd0:	5f450513          	addi	a0,a0,1524 # 800045c0 <_GLOBAL_OFFSET_TABLE_+0x338>
80003fd4:	01058593          	addi	a1,a1,16
80003fd8:	e01fc0ef          	jal	ra,80000dd8 <printf>
80003fdc:	00000517          	auipc	a0,0x0
80003fe0:	60050513          	addi	a0,a0,1536 # 800045dc <_GLOBAL_OFFSET_TABLE_+0x354>
80003fe4:	df5fc0ef          	jal	ra,80000dd8 <printf>
80003fe8:	f7442583          	lw	a1,-140(s0)
80003fec:	00000517          	auipc	a0,0x0
80003ff0:	67c50513          	addi	a0,a0,1660 # 80004668 <_GLOBAL_OFFSET_TABLE_+0x3e0>
80003ff4:	de5fc0ef          	jal	ra,80000dd8 <printf>
80003ff8:	00500593          	li	a1,5
80003ffc:	00000517          	auipc	a0,0x0
80004000:	42450513          	addi	a0,a0,1060 # 80004420 <_GLOBAL_OFFSET_TABLE_+0x198>
80004004:	dd5fc0ef          	jal	ra,80000dd8 <printf>
80004008:	003b1793          	slli	a5,s6,0x3
8000400c:	41678b33          	sub	s6,a5,s6
80004010:	415b05b3          	sub	a1,s6,s5
80004014:	00000517          	auipc	a0,0x0
80004018:	67050513          	addi	a0,a0,1648 # 80004684 <_GLOBAL_OFFSET_TABLE_+0x3fc>
8000401c:	dbdfc0ef          	jal	ra,80000dd8 <printf>
80004020:	00d00593          	li	a1,13
80004024:	00000517          	auipc	a0,0x0
80004028:	3fc50513          	addi	a0,a0,1020 # 80004420 <_GLOBAL_OFFSET_TABLE_+0x198>
8000402c:	dadfc0ef          	jal	ra,80000dd8 <printf>
80004030:	f7842583          	lw	a1,-136(s0)
80004034:	00000517          	auipc	a0,0x0
80004038:	66c50513          	addi	a0,a0,1644 # 800046a0 <_GLOBAL_OFFSET_TABLE_+0x418>
8000403c:	d9dfc0ef          	jal	ra,80000dd8 <printf>
80004040:	00700593          	li	a1,7
80004044:	00000517          	auipc	a0,0x0
80004048:	3dc50513          	addi	a0,a0,988 # 80004420 <_GLOBAL_OFFSET_TABLE_+0x198>
8000404c:	d8dfc0ef          	jal	ra,80000dd8 <printf>
80004050:	f7c42583          	lw	a1,-132(s0)
80004054:	00000517          	auipc	a0,0x0
80004058:	66850513          	addi	a0,a0,1640 # 800046bc <_GLOBAL_OFFSET_TABLE_+0x434>
8000405c:	d7dfc0ef          	jal	ra,80000dd8 <printf>
80004060:	00100593          	li	a1,1
80004064:	00000517          	auipc	a0,0x0
80004068:	3bc50513          	addi	a0,a0,956 # 80004420 <_GLOBAL_OFFSET_TABLE_+0x198>
8000406c:	d6dfc0ef          	jal	ra,80000dd8 <printf>
80004070:	f8040593          	addi	a1,s0,-128
80004074:	00000517          	auipc	a0,0x0
80004078:	66450513          	addi	a0,a0,1636 # 800046d8 <_GLOBAL_OFFSET_TABLE_+0x450>
8000407c:	d5dfc0ef          	jal	ra,80000dd8 <printf>
80004080:	00000517          	auipc	a0,0x0
80004084:	67450513          	addi	a0,a0,1652 # 800046f4 <_GLOBAL_OFFSET_TABLE_+0x46c>
80004088:	d51fc0ef          	jal	ra,80000dd8 <printf>
8000408c:	fa040593          	addi	a1,s0,-96
80004090:	00000517          	auipc	a0,0x0
80004094:	69c50513          	addi	a0,a0,1692 # 8000472c <_GLOBAL_OFFSET_TABLE_+0x4a4>
80004098:	d41fc0ef          	jal	ra,80000dd8 <printf>
8000409c:	00000517          	auipc	a0,0x0
800040a0:	6ac50513          	addi	a0,a0,1708 # 80004748 <_GLOBAL_OFFSET_TABLE_+0x4c0>
800040a4:	d35fc0ef          	jal	ra,80000dd8 <printf>
800040a8:	00000517          	auipc	a0,0x0
800040ac:	46450513          	addi	a0,a0,1124 # 8000450c <_GLOBAL_OFFSET_TABLE_+0x284>
800040b0:	d29fc0ef          	jal	ra,80000dd8 <printf>
800040b4:	00001797          	auipc	a5,0x1
800040b8:	bd878793          	addi	a5,a5,-1064 # 80004c8c <User_Time>
800040bc:	0007a903          	lw	s2,0(a5)
800040c0:	f6c42a03          	lw	s4,-148(s0)
800040c4:	00090513          	mv	a0,s2
800040c8:	000a0593          	mv	a1,s4
800040cc:	f68ff0ef          	jal	ra,80003834 <__divsi3>
800040d0:	e80ff0ef          	jal	ra,80003750 <__floatsidf>
800040d4:	0009a603          	lw	a2,0(s3)
800040d8:	0049a683          	lw	a3,4(s3)
800040dc:	eddfe0ef          	jal	ra,80002fb8 <__muldf3>
800040e0:	0009a603          	lw	a2,0(s3)
800040e4:	0049a683          	lw	a3,4(s3)
800040e8:	e2cfe0ef          	jal	ra,80002714 <__divdf3>
800040ec:	de0ff0ef          	jal	ra,800036cc <__fixdfsi>
800040f0:	005a1793          	slli	a5,s4,0x5
800040f4:	414787b3          	sub	a5,a5,s4
800040f8:	00050493          	mv	s1,a0
800040fc:	00679513          	slli	a0,a5,0x6
80004100:	40f50533          	sub	a0,a0,a5
80004104:	00351513          	slli	a0,a0,0x3
80004108:	01450533          	add	a0,a0,s4
8000410c:	00090593          	mv	a1,s2
80004110:	00001797          	auipc	a5,0x1
80004114:	b697ac23          	sw	s1,-1160(a5) # 80004c88 <Microseconds>
80004118:	00651513          	slli	a0,a0,0x6
8000411c:	f18ff0ef          	jal	ra,80003834 <__divsi3>
80004120:	00001797          	auipc	a5,0x1
80004124:	b6a7a223          	sw	a0,-1180(a5) # 80004c84 <Dhrystones_Per_Second>
80004128:	00048593          	mv	a1,s1
8000412c:	00000517          	auipc	a0,0x0
80004130:	65450513          	addi	a0,a0,1620 # 80004780 <_GLOBAL_OFFSET_TABLE_+0x4f8>
80004134:	ca5fc0ef          	jal	ra,80000dd8 <printf>
80004138:	00001797          	auipc	a5,0x1
8000413c:	b4c78793          	addi	a5,a5,-1204 # 80004c84 <Dhrystones_Per_Second>
80004140:	0007a583          	lw	a1,0(a5)
80004144:	00000517          	auipc	a0,0x0
80004148:	67050513          	addi	a0,a0,1648 # 800047b4 <_GLOBAL_OFFSET_TABLE_+0x52c>
8000414c:	c8dfc0ef          	jal	ra,80000dd8 <printf>
80004150:	f6040113          	addi	sp,s0,-160
80004154:	09c12083          	lw	ra,156(sp)
80004158:	00000513          	li	a0,0
8000415c:	09812403          	lw	s0,152(sp)
80004160:	09412483          	lw	s1,148(sp)
80004164:	09012903          	lw	s2,144(sp)
80004168:	08c12983          	lw	s3,140(sp)
8000416c:	08812a03          	lw	s4,136(sp)
80004170:	08412a83          	lw	s5,132(sp)
80004174:	08012b03          	lw	s6,128(sp)
80004178:	07c12b83          	lw	s7,124(sp)
8000417c:	07812c03          	lw	s8,120(sp)
80004180:	07412c83          	lw	s9,116(sp)
80004184:	07012d03          	lw	s10,112(sp)
80004188:	06c12d83          	lw	s11,108(sp)
8000418c:	0a010113          	addi	sp,sp,160
80004190:	00008067          	ret
80004194:	00300a93          	li	s5,3
80004198:	b55ff06f          	j	80003cec <main+0x370>
8000419c:	00000517          	auipc	a0,0x0
800041a0:	1f850513          	addi	a0,a0,504 # 80004394 <_GLOBAL_OFFSET_TABLE_+0x10c>
800041a4:	c35fc0ef          	jal	ra,80000dd8 <printf>
800041a8:	f6c42703          	lw	a4,-148(s0)
800041ac:	00000517          	auipc	a0,0x0
800041b0:	36050513          	addi	a0,a0,864 # 8000450c <_GLOBAL_OFFSET_TABLE_+0x284>
800041b4:	00271793          	slli	a5,a4,0x2
800041b8:	00e787b3          	add	a5,a5,a4
800041bc:	00179793          	slli	a5,a5,0x1
800041c0:	f6f42623          	sw	a5,-148(s0)
800041c4:	c15fc0ef          	jal	ra,80000dd8 <printf>
800041c8:	00001797          	auipc	a5,0x1
800041cc:	ad078793          	addi	a5,a5,-1328 # 80004c98 <Done>
800041d0:	0007a783          	lw	a5,0(a5)
800041d4:	960782e3          	beqz	a5,80003b38 <main+0x1bc>
800041d8:	b91ff06f          	j	80003d68 <main+0x3ec>
800041dc:	00000517          	auipc	a0,0x0
800041e0:	14450513          	addi	a0,a0,324 # 80004320 <_GLOBAL_OFFSET_TABLE_+0x98>
800041e4:	bf5fc0ef          	jal	ra,80000dd8 <printf>
800041e8:	8f9ff06f          	j	80003ae0 <main+0x164>
800041ec:	ff010113          	addi	sp,sp,-16
800041f0:	00812423          	sw	s0,8(sp)
800041f4:	00912223          	sw	s1,4(sp)
800041f8:	00112623          	sw	ra,12(sp)
800041fc:	06d00493          	li	s1,109
80004200:	04900513          	li	a0,73
80004204:	00000417          	auipc	s0,0x0
80004208:	65440413          	addi	s0,s0,1620 # 80004858 <_GLOBAL_OFFSET_TABLE_+0x5d0>
8000420c:	00c0006f          	j	80004218 <main+0x89c>
80004210:	00048513          	mv	a0,s1
80004214:	00144483          	lbu	s1,1(s0)
80004218:	00140413          	addi	s0,s0,1
8000421c:	bf4fc0ef          	jal	ra,80000610 <putchar>
80004220:	fe0498e3          	bnez	s1,80004210 <main+0x894>
80004224:	00c12083          	lw	ra,12(sp)
80004228:	00812403          	lw	s0,8(sp)
8000422c:	00412483          	lw	s1,4(sp)
80004230:	fff00513          	li	a0,-1
80004234:	01010113          	addi	sp,sp,16
80004238:	00008067          	ret
