
median.riscv:     file format elf32-littleriscv


Disassembly of section .text:

80000000 <_start>:
80000000:	00000297          	auipc	t0,0x0
80000004:	0dc28293          	addi	t0,t0,220 # 800000dc <trap_entry>
80000008:	30529073          	csrw	mtvec,t0
8000000c:	00000093          	li	ra,0
80000010:	00000113          	li	sp,0
80000014:	00000193          	li	gp,0
80000018:	00000213          	li	tp,0
8000001c:	00000293          	li	t0,0
80000020:	00000313          	li	t1,0
80000024:	00000393          	li	t2,0
80000028:	00000413          	li	s0,0
8000002c:	00000493          	li	s1,0
80000030:	00000513          	li	a0,0
80000034:	00000593          	li	a1,0
80000038:	00000613          	li	a2,0
8000003c:	00000693          	li	a3,0
80000040:	00000713          	li	a4,0
80000044:	00000793          	li	a5,0
80000048:	00000813          	li	a6,0
8000004c:	00000893          	li	a7,0
80000050:	00000913          	li	s2,0
80000054:	00000993          	li	s3,0
80000058:	00000a13          	li	s4,0
8000005c:	00000a93          	li	s5,0
80000060:	00000b13          	li	s6,0
80000064:	00000b93          	li	s7,0
80000068:	00000c13          	li	s8,0
8000006c:	00000c93          	li	s9,0
80000070:	00000d13          	li	s10,0
80000074:	00000d93          	li	s11,0
80000078:	00000e13          	li	t3,0
8000007c:	00000e93          	li	t4,0
80000080:	00000f13          	li	t5,0
80000084:	00000f93          	li	t6,0
80000088:	0001e2b7          	lui	t0,0x1e
8000008c:	3002a073          	csrs	mstatus,t0
80000090:	301022f3          	csrr	t0,misa
80000094:	0002d663          	bgez	t0,800000a0 <_start+0xa0>
80000098:	4d200513          	li	a0,1234
8000009c:	75c0006f          	j	800007f8 <tohost_exit>
800000a0:	00004197          	auipc	gp,0x4
800000a4:	d3818193          	addi	gp,gp,-712 # 80003dd8 <_gp>
800000a8:	00003217          	auipc	tp,0x3
800000ac:	57720213          	addi	tp,tp,1399 # 8000361f <_end+0x3f>
800000b0:	fc027213          	andi	tp,tp,-64
800000b4:	f1402573          	csrr	a0,mhartid
800000b8:	01151613          	slli	a2,a0,0x11
800000bc:	00c20233          	add	tp,tp,a2
800000c0:	00150113          	addi	sp,a0,1
800000c4:	01111113          	slli	sp,sp,0x11
800000c8:	00410133          	add	sp,sp,tp
800000cc:	4ed000ef          	jal	ra,80000db8 <get_nharts>
800000d0:	00050593          	mv	a1,a0
800000d4:	f1402573          	csrr	a0,mhartid
800000d8:	2d50006f          	j	80000bac <_init>

800000dc <trap_entry>:
800000dc:	ef010113          	addi	sp,sp,-272
800000e0:	00112223          	sw	ra,4(sp)
800000e4:	00212423          	sw	sp,8(sp)
800000e8:	00312623          	sw	gp,12(sp)
800000ec:	00412823          	sw	tp,16(sp)
800000f0:	00512a23          	sw	t0,20(sp)
800000f4:	00612c23          	sw	t1,24(sp)
800000f8:	00712e23          	sw	t2,28(sp)
800000fc:	02812023          	sw	s0,32(sp)
80000100:	02912223          	sw	s1,36(sp)
80000104:	02a12423          	sw	a0,40(sp)
80000108:	02b12623          	sw	a1,44(sp)
8000010c:	02c12823          	sw	a2,48(sp)
80000110:	02d12a23          	sw	a3,52(sp)
80000114:	02e12c23          	sw	a4,56(sp)
80000118:	02f12e23          	sw	a5,60(sp)
8000011c:	05012023          	sw	a6,64(sp)
80000120:	05112223          	sw	a7,68(sp)
80000124:	05212423          	sw	s2,72(sp)
80000128:	05312623          	sw	s3,76(sp)
8000012c:	05412823          	sw	s4,80(sp)
80000130:	05512a23          	sw	s5,84(sp)
80000134:	05612c23          	sw	s6,88(sp)
80000138:	05712e23          	sw	s7,92(sp)
8000013c:	07812023          	sw	s8,96(sp)
80000140:	07912223          	sw	s9,100(sp)
80000144:	07a12423          	sw	s10,104(sp)
80000148:	07b12623          	sw	s11,108(sp)
8000014c:	07c12823          	sw	t3,112(sp)
80000150:	07d12a23          	sw	t4,116(sp)
80000154:	07e12c23          	sw	t5,120(sp)
80000158:	07f12e23          	sw	t6,124(sp)
8000015c:	34202573          	csrr	a0,mcause
80000160:	341025f3          	csrr	a1,mepc
80000164:	00010613          	mv	a2,sp
80000168:	6b0000ef          	jal	ra,80000818 <handle_trap>
8000016c:	34151073          	csrw	mepc,a0
80000170:	000022b7          	lui	t0,0x2
80000174:	80028293          	addi	t0,t0,-2048 # 1800 <_tbss_end+0x1800>
80000178:	3002a073          	csrs	mstatus,t0
8000017c:	00412083          	lw	ra,4(sp)
80000180:	00812103          	lw	sp,8(sp)
80000184:	00c12183          	lw	gp,12(sp)
80000188:	01012203          	lw	tp,16(sp)
8000018c:	01412283          	lw	t0,20(sp)
80000190:	01812303          	lw	t1,24(sp)
80000194:	01c12383          	lw	t2,28(sp)
80000198:	02012403          	lw	s0,32(sp)
8000019c:	02412483          	lw	s1,36(sp)
800001a0:	02812503          	lw	a0,40(sp)
800001a4:	02c12583          	lw	a1,44(sp)
800001a8:	03012603          	lw	a2,48(sp)
800001ac:	03412683          	lw	a3,52(sp)
800001b0:	03812703          	lw	a4,56(sp)
800001b4:	03c12783          	lw	a5,60(sp)
800001b8:	04012803          	lw	a6,64(sp)
800001bc:	04412883          	lw	a7,68(sp)
800001c0:	04812903          	lw	s2,72(sp)
800001c4:	04c12983          	lw	s3,76(sp)
800001c8:	05012a03          	lw	s4,80(sp)
800001cc:	05412a83          	lw	s5,84(sp)
800001d0:	05812b03          	lw	s6,88(sp)
800001d4:	05c12b83          	lw	s7,92(sp)
800001d8:	06012c03          	lw	s8,96(sp)
800001dc:	06412c83          	lw	s9,100(sp)
800001e0:	06812d03          	lw	s10,104(sp)
800001e4:	06c12d83          	lw	s11,108(sp)
800001e8:	07012e03          	lw	t3,112(sp)
800001ec:	07412e83          	lw	t4,116(sp)
800001f0:	07812f03          	lw	t5,120(sp)
800001f4:	07c12f83          	lw	t6,124(sp)
800001f8:	11010113          	addi	sp,sp,272
800001fc:	30200073          	mret

80000200 <median>:
80000200:	00251793          	slli	a5,a0,0x2
80000204:	ffc78793          	addi	a5,a5,-4
80000208:	00f60733          	add	a4,a2,a5
8000020c:	00062023          	sw	zero,0(a2)
80000210:	00072023          	sw	zero,0(a4)
80000214:	00200713          	li	a4,2
80000218:	02a75c63          	bge	a4,a0,80000250 <median+0x50>
8000021c:	00b78533          	add	a0,a5,a1
80000220:	00460613          	addi	a2,a2,4
80000224:	ffc50513          	addi	a0,a0,-4
80000228:	0005a703          	lw	a4,0(a1)
8000022c:	0045a783          	lw	a5,4(a1)
80000230:	0085a683          	lw	a3,8(a1)
80000234:	02f75063          	bge	a4,a5,80000254 <median+0x54>
80000238:	02d7c663          	blt	a5,a3,80000264 <median+0x64>
8000023c:	02e6d063          	bge	a3,a4,8000025c <median+0x5c>
80000240:	00e62023          	sw	a4,0(a2)
80000244:	00458593          	addi	a1,a1,4
80000248:	00460613          	addi	a2,a2,4
8000024c:	fca59ee3          	bne	a1,a0,80000228 <median+0x28>
80000250:	00008067          	ret
80000254:	fed746e3          	blt	a4,a3,80000240 <median+0x40>
80000258:	00f6c663          	blt	a3,a5,80000264 <median+0x64>
8000025c:	00d62023          	sw	a3,0(a2)
80000260:	fe5ff06f          	j	80000244 <median+0x44>
80000264:	00f62023          	sw	a5,0(a2)
80000268:	fddff06f          	j	80000244 <median+0x44>

8000026c <putchar>:
8000026c:	ff010113          	addi	sp,sp,-16
80000270:	00812423          	sw	s0,8(sp)
80000274:	00112623          	sw	ra,12(sp)
80000278:	00a00793          	li	a5,10
8000027c:	00050413          	mv	s0,a0
80000280:	02f50063          	beq	a0,a5,800002a0 <putchar+0x34>
80000284:	ff0007b7          	lui	a5,0xff000
80000288:	0087a023          	sw	s0,0(a5) # ff000000 <_gp+0x7effc228>
8000028c:	00c12083          	lw	ra,12(sp)
80000290:	00812403          	lw	s0,8(sp)
80000294:	00000513          	li	a0,0
80000298:	01010113          	addi	sp,sp,16
8000029c:	00008067          	ret
800002a0:	00d00513          	li	a0,13
800002a4:	fc9ff0ef          	jal	ra,8000026c <putchar>
800002a8:	ff0007b7          	lui	a5,0xff000
800002ac:	0087a023          	sw	s0,0(a5) # ff000000 <_gp+0x7effc228>
800002b0:	00c12083          	lw	ra,12(sp)
800002b4:	00812403          	lw	s0,8(sp)
800002b8:	00000513          	li	a0,0
800002bc:	01010113          	addi	sp,sp,16
800002c0:	00008067          	ret

800002c4 <vprintfmt>:
800002c4:	eb010113          	addi	sp,sp,-336
800002c8:	13a12023          	sw	s10,288(sp)
800002cc:	40000d37          	lui	s10,0x40000
800002d0:	fffd0793          	addi	a5,s10,-1 # 3fffffff <_tbss_end+0x3fffffff>
800002d4:	14812423          	sw	s0,328(sp)
800002d8:	14912223          	sw	s1,324(sp)
800002dc:	15212023          	sw	s2,320(sp)
800002e0:	14112623          	sw	ra,332(sp)
800002e4:	13312e23          	sw	s3,316(sp)
800002e8:	13412c23          	sw	s4,312(sp)
800002ec:	13512a23          	sw	s5,308(sp)
800002f0:	13612823          	sw	s6,304(sp)
800002f4:	13712623          	sw	s7,300(sp)
800002f8:	13812423          	sw	s8,296(sp)
800002fc:	13912223          	sw	s9,292(sp)
80000300:	11b12e23          	sw	s11,284(sp)
80000304:	00050913          	mv	s2,a0
80000308:	00058493          	mv	s1,a1
8000030c:	00060413          	mv	s0,a2
80000310:	00d12423          	sw	a3,8(sp)
80000314:	00f12623          	sw	a5,12(sp)
80000318:	00044503          	lbu	a0,0(s0)
8000031c:	02500793          	li	a5,37
80000320:	02f50463          	beq	a0,a5,80000348 <vprintfmt+0x84>
80000324:	06050a63          	beqz	a0,80000398 <vprintfmt+0xd4>
80000328:	02500993          	li	s3,37
8000032c:	0080006f          	j	80000334 <vprintfmt+0x70>
80000330:	06050463          	beqz	a0,80000398 <vprintfmt+0xd4>
80000334:	00048593          	mv	a1,s1
80000338:	00140413          	addi	s0,s0,1
8000033c:	000900e7          	jalr	s2
80000340:	00044503          	lbu	a0,0(s0)
80000344:	ff3516e3          	bne	a0,s3,80000330 <vprintfmt+0x6c>
80000348:	00144683          	lbu	a3,1(s0)
8000034c:	00140a93          	addi	s5,s0,1
80000350:	000a8713          	mv	a4,s5
80000354:	02000b13          	li	s6,32
80000358:	fff00993          	li	s3,-1
8000035c:	fff00a13          	li	s4,-1
80000360:	00000593          	li	a1,0
80000364:	05500513          	li	a0,85
80000368:	00900813          	li	a6,9
8000036c:	fdd68793          	addi	a5,a3,-35
80000370:	0ff7f793          	andi	a5,a5,255
80000374:	00170413          	addi	s0,a4,1
80000378:	36f56663          	bltu	a0,a5,800006e4 <vprintfmt+0x420>
8000037c:	00002617          	auipc	a2,0x2
80000380:	1b060613          	addi	a2,a2,432 # 8000252c <main+0xe4>
80000384:	00279793          	slli	a5,a5,0x2
80000388:	00c787b3          	add	a5,a5,a2
8000038c:	0007a783          	lw	a5,0(a5)
80000390:	00c787b3          	add	a5,a5,a2
80000394:	00078067          	jr	a5
80000398:	14c12083          	lw	ra,332(sp)
8000039c:	14812403          	lw	s0,328(sp)
800003a0:	14412483          	lw	s1,324(sp)
800003a4:	14012903          	lw	s2,320(sp)
800003a8:	13c12983          	lw	s3,316(sp)
800003ac:	13812a03          	lw	s4,312(sp)
800003b0:	13412a83          	lw	s5,308(sp)
800003b4:	13012b03          	lw	s6,304(sp)
800003b8:	12c12b83          	lw	s7,300(sp)
800003bc:	12812c03          	lw	s8,296(sp)
800003c0:	12412c83          	lw	s9,292(sp)
800003c4:	12012d03          	lw	s10,288(sp)
800003c8:	11c12d83          	lw	s11,284(sp)
800003cc:	15010113          	addi	sp,sp,336
800003d0:	00008067          	ret
800003d4:	00800a93          	li	s5,8
800003d8:	00012223          	sw	zero,4(sp)
800003dc:	00100793          	li	a5,1
800003e0:	24b7c863          	blt	a5,a1,80000630 <vprintfmt+0x36c>
800003e4:	00812783          	lw	a5,8(sp)
800003e8:	00478693          	addi	a3,a5,4
800003ec:	00812783          	lw	a5,8(sp)
800003f0:	00000d93          	li	s11,0
800003f4:	0007ab83          	lw	s7,0(a5)
800003f8:	00d12423          	sw	a3,8(sp)
800003fc:	000a8613          	mv	a2,s5
80000400:	00000693          	li	a3,0
80000404:	000b8513          	mv	a0,s7
80000408:	000d8593          	mv	a1,s11
8000040c:	19d010ef          	jal	ra,80001da8 <__umoddi3>
80000410:	00a12823          	sw	a0,16(sp)
80000414:	00000793          	li	a5,0
80000418:	00050d13          	mv	s10,a0
8000041c:	2fb78c63          	beq	a5,s11,80000714 <vprintfmt+0x450>
80000420:	01410c13          	addi	s8,sp,20
80000424:	00100993          	li	s3,1
80000428:	000a8613          	mv	a2,s5
8000042c:	00000693          	li	a3,0
80000430:	000b8513          	mv	a0,s7
80000434:	000d8593          	mv	a1,s11
80000438:	338010ef          	jal	ra,80001770 <__udivdi3>
8000043c:	000a8613          	mv	a2,s5
80000440:	00000693          	li	a3,0
80000444:	00050b93          	mv	s7,a0
80000448:	00058d93          	mv	s11,a1
8000044c:	15d010ef          	jal	ra,80001da8 <__umoddi3>
80000450:	00412783          	lw	a5,4(sp)
80000454:	00ac2023          	sw	a0,0(s8)
80000458:	00050d13          	mv	s10,a0
8000045c:	00198c93          	addi	s9,s3,1
80000460:	004c0c13          	addi	s8,s8,4
80000464:	01b78663          	beq	a5,s11,80000470 <vprintfmt+0x1ac>
80000468:	000c8993          	mv	s3,s9
8000046c:	fbdff06f          	j	80000428 <vprintfmt+0x164>
80000470:	ff5bfce3          	bgeu	s7,s5,80000468 <vprintfmt+0x1a4>
80000474:	014cdc63          	bge	s9,s4,8000048c <vprintfmt+0x1c8>
80000478:	fffa0a13          	addi	s4,s4,-1
8000047c:	00048593          	mv	a1,s1
80000480:	000b0513          	mv	a0,s6
80000484:	000900e7          	jalr	s2
80000488:	ff4cc8e3          	blt	s9,s4,80000478 <vprintfmt+0x1b4>
8000048c:	00c12783          	lw	a5,12(sp)
80000490:	00900a13          	li	s4,9
80000494:	00f989b3          	add	s3,s3,a5
80000498:	00299993          	slli	s3,s3,0x2
8000049c:	01010793          	addi	a5,sp,16
800004a0:	013789b3          	add	s3,a5,s3
800004a4:	00c0006f          	j	800004b0 <vprintfmt+0x1ec>
800004a8:	0009ad03          	lw	s10,0(s3)
800004ac:	ffc98993          	addi	s3,s3,-4
800004b0:	05700513          	li	a0,87
800004b4:	01aa6463          	bltu	s4,s10,800004bc <vprintfmt+0x1f8>
800004b8:	03000513          	li	a0,48
800004bc:	00048593          	mv	a1,s1
800004c0:	01a50533          	add	a0,a0,s10
800004c4:	000900e7          	jalr	s2
800004c8:	00c10793          	addi	a5,sp,12
800004cc:	fd379ee3          	bne	a5,s3,800004a8 <vprintfmt+0x1e4>
800004d0:	e49ff06f          	j	80000318 <vprintfmt+0x54>
800004d4:	03000513          	li	a0,48
800004d8:	00048593          	mv	a1,s1
800004dc:	000900e7          	jalr	s2
800004e0:	00048593          	mv	a1,s1
800004e4:	07800513          	li	a0,120
800004e8:	000900e7          	jalr	s2
800004ec:	00812783          	lw	a5,8(sp)
800004f0:	01000a93          	li	s5,16
800004f4:	00012223          	sw	zero,4(sp)
800004f8:	00478693          	addi	a3,a5,4
800004fc:	ef1ff06f          	j	800003ec <vprintfmt+0x128>
80000500:	00812783          	lw	a5,8(sp)
80000504:	00174683          	lbu	a3,1(a4)
80000508:	00040713          	mv	a4,s0
8000050c:	0007a983          	lw	s3,0(a5)
80000510:	00478793          	addi	a5,a5,4
80000514:	00f12423          	sw	a5,8(sp)
80000518:	e40a5ae3          	bgez	s4,8000036c <vprintfmt+0xa8>
8000051c:	00098a13          	mv	s4,s3
80000520:	fff00993          	li	s3,-1
80000524:	e49ff06f          	j	8000036c <vprintfmt+0xa8>
80000528:	00174683          	lbu	a3,1(a4)
8000052c:	02d00b13          	li	s6,45
80000530:	00040713          	mv	a4,s0
80000534:	e39ff06f          	j	8000036c <vprintfmt+0xa8>
80000538:	fffa4793          	not	a5,s4
8000053c:	41f7d793          	srai	a5,a5,0x1f
80000540:	00174683          	lbu	a3,1(a4)
80000544:	00fa7a33          	and	s4,s4,a5
80000548:	00040713          	mv	a4,s0
8000054c:	e21ff06f          	j	8000036c <vprintfmt+0xa8>
80000550:	00174683          	lbu	a3,1(a4)
80000554:	03000b13          	li	s6,48
80000558:	00040713          	mv	a4,s0
8000055c:	e11ff06f          	j	8000036c <vprintfmt+0xa8>
80000560:	00174603          	lbu	a2,1(a4)
80000564:	fd068993          	addi	s3,a3,-48
80000568:	00040713          	mv	a4,s0
8000056c:	fd060793          	addi	a5,a2,-48
80000570:	00060693          	mv	a3,a2
80000574:	faf862e3          	bltu	a6,a5,80000518 <vprintfmt+0x254>
80000578:	00299793          	slli	a5,s3,0x2
8000057c:	013789b3          	add	s3,a5,s3
80000580:	00170713          	addi	a4,a4,1
80000584:	00199993          	slli	s3,s3,0x1
80000588:	00c989b3          	add	s3,s3,a2
8000058c:	00074603          	lbu	a2,0(a4)
80000590:	fd098993          	addi	s3,s3,-48
80000594:	fd060793          	addi	a5,a2,-48
80000598:	00060693          	mv	a3,a2
8000059c:	fcf87ee3          	bgeu	a6,a5,80000578 <vprintfmt+0x2b4>
800005a0:	f79ff06f          	j	80000518 <vprintfmt+0x254>
800005a4:	00812783          	lw	a5,8(sp)
800005a8:	00048593          	mv	a1,s1
800005ac:	0007a503          	lw	a0,0(a5)
800005b0:	00478c93          	addi	s9,a5,4
800005b4:	000900e7          	jalr	s2
800005b8:	01912423          	sw	s9,8(sp)
800005bc:	d5dff06f          	j	80000318 <vprintfmt+0x54>
800005c0:	00100793          	li	a5,1
800005c4:	16b7c463          	blt	a5,a1,8000072c <vprintfmt+0x468>
800005c8:	00812703          	lw	a4,8(sp)
800005cc:	00470793          	addi	a5,a4,4
800005d0:	16058e63          	beqz	a1,8000074c <vprintfmt+0x488>
800005d4:	00072b83          	lw	s7,0(a4)
800005d8:	00f12423          	sw	a5,8(sp)
800005dc:	41fbdd93          	srai	s11,s7,0x1f
800005e0:	020dd263          	bgez	s11,80000604 <vprintfmt+0x340>
800005e4:	00048593          	mv	a1,s1
800005e8:	02d00513          	li	a0,45
800005ec:	000900e7          	jalr	s2
800005f0:	41700733          	neg	a4,s7
800005f4:	00e036b3          	snez	a3,a4
800005f8:	41b007b3          	neg	a5,s11
800005fc:	00070b93          	mv	s7,a4
80000600:	40d78db3          	sub	s11,a5,a3
80000604:	00a00a93          	li	s5,10
80000608:	00012223          	sw	zero,4(sp)
8000060c:	df1ff06f          	j	800003fc <vprintfmt+0x138>
80000610:	00174683          	lbu	a3,1(a4)
80000614:	00158593          	addi	a1,a1,1
80000618:	00040713          	mv	a4,s0
8000061c:	d51ff06f          	j	8000036c <vprintfmt+0xa8>
80000620:	00012223          	sw	zero,4(sp)
80000624:	00100793          	li	a5,1
80000628:	00a00a93          	li	s5,10
8000062c:	dab7dce3          	bge	a5,a1,800003e4 <vprintfmt+0x120>
80000630:	00812783          	lw	a5,8(sp)
80000634:	00778793          	addi	a5,a5,7
80000638:	ff87f793          	andi	a5,a5,-8
8000063c:	00878713          	addi	a4,a5,8
80000640:	00e12423          	sw	a4,8(sp)
80000644:	0007ab83          	lw	s7,0(a5)
80000648:	0047ad83          	lw	s11,4(a5)
8000064c:	db1ff06f          	j	800003fc <vprintfmt+0x138>
80000650:	01000a93          	li	s5,16
80000654:	00012223          	sw	zero,4(sp)
80000658:	d85ff06f          	j	800003dc <vprintfmt+0x118>
8000065c:	00174683          	lbu	a3,1(a4)
80000660:	00040713          	mv	a4,s0
80000664:	d09ff06f          	j	8000036c <vprintfmt+0xa8>
80000668:	00048593          	mv	a1,s1
8000066c:	02500513          	li	a0,37
80000670:	000900e7          	jalr	s2
80000674:	ca5ff06f          	j	80000318 <vprintfmt+0x54>
80000678:	00812783          	lw	a5,8(sp)
8000067c:	0007aa83          	lw	s5,0(a5)
80000680:	00478c93          	addi	s9,a5,4
80000684:	0c0a8863          	beqz	s5,80000754 <vprintfmt+0x490>
80000688:	07405e63          	blez	s4,80000704 <vprintfmt+0x440>
8000068c:	02d00793          	li	a5,45
80000690:	0efb1663          	bne	s6,a5,8000077c <vprintfmt+0x4b8>
80000694:	000ac503          	lbu	a0,0(s5)
80000698:	02050863          	beqz	a0,800006c8 <vprintfmt+0x404>
8000069c:	fff00b13          	li	s6,-1
800006a0:	0009c663          	bltz	s3,800006ac <vprintfmt+0x3e8>
800006a4:	fff98993          	addi	s3,s3,-1
800006a8:	01698e63          	beq	s3,s6,800006c4 <vprintfmt+0x400>
800006ac:	00048593          	mv	a1,s1
800006b0:	001a8a93          	addi	s5,s5,1
800006b4:	000900e7          	jalr	s2
800006b8:	000ac503          	lbu	a0,0(s5)
800006bc:	fffa0a13          	addi	s4,s4,-1
800006c0:	fe0510e3          	bnez	a0,800006a0 <vprintfmt+0x3dc>
800006c4:	01405c63          	blez	s4,800006dc <vprintfmt+0x418>
800006c8:	fffa0a13          	addi	s4,s4,-1
800006cc:	00048593          	mv	a1,s1
800006d0:	02000513          	li	a0,32
800006d4:	000900e7          	jalr	s2
800006d8:	fe0a18e3          	bnez	s4,800006c8 <vprintfmt+0x404>
800006dc:	01912423          	sw	s9,8(sp)
800006e0:	c39ff06f          	j	80000318 <vprintfmt+0x54>
800006e4:	00048593          	mv	a1,s1
800006e8:	02500513          	li	a0,37
800006ec:	000900e7          	jalr	s2
800006f0:	000a8413          	mv	s0,s5
800006f4:	c25ff06f          	j	80000318 <vprintfmt+0x54>
800006f8:	415686b3          	sub	a3,a3,s5
800006fc:	40da0a33          	sub	s4,s4,a3
80000700:	0b404a63          	bgtz	s4,800007b4 <vprintfmt+0x4f0>
80000704:	000ac503          	lbu	a0,0(s5)
80000708:	fc050ae3          	beqz	a0,800006dc <vprintfmt+0x418>
8000070c:	fff00b13          	li	s6,-1
80000710:	f91ff06f          	j	800006a0 <vprintfmt+0x3dc>
80000714:	d15bf6e3          	bgeu	s7,s5,80000420 <vprintfmt+0x15c>
80000718:	00100793          	li	a5,1
8000071c:	00000993          	li	s3,0
80000720:	00100c93          	li	s9,1
80000724:	d547cae3          	blt	a5,s4,80000478 <vprintfmt+0x1b4>
80000728:	d65ff06f          	j	8000048c <vprintfmt+0x1c8>
8000072c:	00812783          	lw	a5,8(sp)
80000730:	00778793          	addi	a5,a5,7
80000734:	ff87f793          	andi	a5,a5,-8
80000738:	00878713          	addi	a4,a5,8
8000073c:	00e12423          	sw	a4,8(sp)
80000740:	0007ab83          	lw	s7,0(a5)
80000744:	0047ad83          	lw	s11,4(a5)
80000748:	e99ff06f          	j	800005e0 <vprintfmt+0x31c>
8000074c:	00812703          	lw	a4,8(sp)
80000750:	e85ff06f          	j	800005d4 <vprintfmt+0x310>
80000754:	01405663          	blez	s4,80000760 <vprintfmt+0x49c>
80000758:	02d00793          	li	a5,45
8000075c:	00fb1c63          	bne	s6,a5,80000774 <vprintfmt+0x4b0>
80000760:	00002a97          	auipc	s5,0x2
80000764:	024a8a93          	addi	s5,s5,36 # 80002784 <__clz_tab+0x100>
80000768:	02800513          	li	a0,40
8000076c:	fff00b13          	li	s6,-1
80000770:	f31ff06f          	j	800006a0 <vprintfmt+0x3dc>
80000774:	00002a97          	auipc	s5,0x2
80000778:	010a8a93          	addi	s5,s5,16 # 80002784 <__clz_tab+0x100>
8000077c:	02098c63          	beqz	s3,800007b4 <vprintfmt+0x4f0>
80000780:	000ac783          	lbu	a5,0(s5)
80000784:	02078863          	beqz	a5,800007b4 <vprintfmt+0x4f0>
80000788:	001a8793          	addi	a5,s5,1
8000078c:	013a8633          	add	a2,s5,s3
80000790:	0100006f          	j	800007a0 <vprintfmt+0x4dc>
80000794:	00178793          	addi	a5,a5,1
80000798:	fff7c703          	lbu	a4,-1(a5)
8000079c:	f4070ee3          	beqz	a4,800006f8 <vprintfmt+0x434>
800007a0:	00078693          	mv	a3,a5
800007a4:	fec798e3          	bne	a5,a2,80000794 <vprintfmt+0x4d0>
800007a8:	415787b3          	sub	a5,a5,s5
800007ac:	40fa0a33          	sub	s4,s4,a5
800007b0:	f5405ae3          	blez	s4,80000704 <vprintfmt+0x440>
800007b4:	fffa0a13          	addi	s4,s4,-1
800007b8:	00048593          	mv	a1,s1
800007bc:	000b0513          	mv	a0,s6
800007c0:	000900e7          	jalr	s2
800007c4:	f40a00e3          	beqz	s4,80000704 <vprintfmt+0x440>
800007c8:	fffa0a13          	addi	s4,s4,-1
800007cc:	00048593          	mv	a1,s1
800007d0:	000b0513          	mv	a0,s6
800007d4:	000900e7          	jalr	s2
800007d8:	fc0a1ee3          	bnez	s4,800007b4 <vprintfmt+0x4f0>
800007dc:	f29ff06f          	j	80000704 <vprintfmt+0x440>

800007e0 <sprintf_putch.2590>:
800007e0:	0005a783          	lw	a5,0(a1)
800007e4:	00a78023          	sb	a0,0(a5)
800007e8:	0005a783          	lw	a5,0(a1)
800007ec:	00178793          	addi	a5,a5,1
800007f0:	00f5a023          	sw	a5,0(a1)
800007f4:	00008067          	ret

800007f8 <tohost_exit>:
800007f8:	00151513          	slli	a0,a0,0x1
800007fc:	00003697          	auipc	a3,0x3
80000800:	d8468693          	addi	a3,a3,-636 # 80003580 <tohost>
80000804:	00156713          	ori	a4,a0,1
80000808:	00000793          	li	a5,0
8000080c:	00e6a023          	sw	a4,0(a3)
80000810:	00f6a223          	sw	a5,4(a3)
80000814:	0000006f          	j	80000814 <tohost_exit+0x1c>

80000818 <handle_trap>:
80000818:	00b00713          	li	a4,11
8000081c:	02e50263          	beq	a0,a4,80000840 <handle_trap+0x28>
80000820:	00001637          	lui	a2,0x1
80000824:	00003797          	auipc	a5,0x3
80000828:	d5c78793          	addi	a5,a5,-676 # 80003580 <tohost>
8000082c:	a7360613          	addi	a2,a2,-1421 # a73 <_tbss_end+0xa73>
80000830:	00000693          	li	a3,0
80000834:	00c7a023          	sw	a2,0(a5)
80000838:	00d7a223          	sw	a3,4(a5)
8000083c:	0000006f          	j	8000083c <handle_trap+0x24>
80000840:	04462703          	lw	a4,68(a2)
80000844:	f7010113          	addi	sp,sp,-144
80000848:	00058693          	mv	a3,a1
8000084c:	08112623          	sw	ra,140(sp)
80000850:	05d00593          	li	a1,93
80000854:	02862503          	lw	a0,40(a2)
80000858:	0cb70263          	beq	a4,a1,8000091c <handle_trap+0x104>
8000085c:	4d200593          	li	a1,1234
80000860:	0cb70063          	beq	a4,a1,80000920 <handle_trap+0x108>
80000864:	03f10793          	addi	a5,sp,63
80000868:	fc07f793          	andi	a5,a5,-64
8000086c:	00e7a023          	sw	a4,0(a5)
80000870:	00000f93          	li	t6,0
80000874:	01f7a223          	sw	t6,4(a5)
80000878:	02c62303          	lw	t1,44(a2)
8000087c:	00a7a423          	sw	a0,8(a5)
80000880:	00000e93          	li	t4,0
80000884:	01d7a623          	sw	t4,12(a5)
80000888:	03062803          	lw	a6,48(a2)
8000088c:	0067a823          	sw	t1,16(a5)
80000890:	00000393          	li	t2,0
80000894:	0077aa23          	sw	t2,20(a5)
80000898:	0107ac23          	sw	a6,24(a5)
8000089c:	00000893          	li	a7,0
800008a0:	0117ae23          	sw	a7,28(a5)
800008a4:	0ff0000f          	fence
800008a8:	00003717          	auipc	a4,0x3
800008ac:	cd870713          	addi	a4,a4,-808 # 80003580 <tohost>
800008b0:	00f72023          	sw	a5,0(a4)
800008b4:	00000593          	li	a1,0
800008b8:	00b72223          	sw	a1,4(a4)
800008bc:	00003717          	auipc	a4,0x3
800008c0:	d0470713          	addi	a4,a4,-764 # 800035c0 <fromhost>
800008c4:	00072503          	lw	a0,0(a4)
800008c8:	00472583          	lw	a1,4(a4)
800008cc:	00b56533          	or	a0,a0,a1
800008d0:	fe050ae3          	beqz	a0,800008c4 <handle_trap+0xac>
800008d4:	00000513          	li	a0,0
800008d8:	00a72023          	sw	a0,0(a4)
800008dc:	00000593          	li	a1,0
800008e0:	00b72223          	sw	a1,4(a4)
800008e4:	0ff0000f          	fence
800008e8:	0007a503          	lw	a0,0(a5)
800008ec:	0047a583          	lw	a1,4(a5)
800008f0:	0006d783          	lhu	a5,0(a3)
800008f4:	00300713          	li	a4,3
800008f8:	02a62423          	sw	a0,40(a2)
800008fc:	0037f793          	andi	a5,a5,3
80000900:	00400513          	li	a0,4
80000904:	00e78463          	beq	a5,a4,8000090c <handle_trap+0xf4>
80000908:	00200513          	li	a0,2
8000090c:	08c12083          	lw	ra,140(sp)
80000910:	00d50533          	add	a0,a0,a3
80000914:	09010113          	addi	sp,sp,144
80000918:	00008067          	ret
8000091c:	eddff0ef          	jal	ra,800007f8 <tohost_exit>
80000920:	b00027f3          	csrr	a5,mcycle
80000924:	02051263          	bnez	a0,80000948 <handle_trap+0x130>
80000928:	00003717          	auipc	a4,0x3
8000092c:	cb470713          	addi	a4,a4,-844 # 800035dc <counters>
80000930:	00072703          	lw	a4,0(a4)
80000934:	00002697          	auipc	a3,0x2
80000938:	e5868693          	addi	a3,a3,-424 # 8000278c <__clz_tab+0x108>
8000093c:	00003617          	auipc	a2,0x3
80000940:	c8d62e23          	sw	a3,-868(a2) # 800035d8 <counter_names>
80000944:	40e787b3          	sub	a5,a5,a4
80000948:	00003717          	auipc	a4,0x3
8000094c:	c8f72a23          	sw	a5,-876(a4) # 800035dc <counters>
80000950:	0000006f          	j	80000950 <handle_trap+0x138>

80000954 <exit>:
80000954:	05d00893          	li	a7,93
80000958:	00000593          	li	a1,0
8000095c:	00000613          	li	a2,0
80000960:	00000073          	ecall
80000964:	00000073          	ecall
80000968:	0000006f          	j	80000968 <exit+0x14>

8000096c <setStats>:
8000096c:	00008067          	ret

80000970 <printstr>:
80000970:	ff010113          	addi	sp,sp,-16
80000974:	00812423          	sw	s0,8(sp)
80000978:	00112623          	sw	ra,12(sp)
8000097c:	00050413          	mv	s0,a0
80000980:	00054503          	lbu	a0,0(a0)
80000984:	00050a63          	beqz	a0,80000998 <printstr+0x28>
80000988:	00140413          	addi	s0,s0,1
8000098c:	8e1ff0ef          	jal	ra,8000026c <putchar>
80000990:	00044503          	lbu	a0,0(s0)
80000994:	fe051ae3          	bnez	a0,80000988 <printstr+0x18>
80000998:	00c12083          	lw	ra,12(sp)
8000099c:	00812403          	lw	s0,8(sp)
800009a0:	01010113          	addi	sp,sp,16
800009a4:	00008067          	ret

800009a8 <thread_entry>:
800009a8:	00050463          	beqz	a0,800009b0 <thread_entry+0x8>
800009ac:	0000006f          	j	800009ac <thread_entry+0x4>
800009b0:	00008067          	ret

800009b4 <printhex>:
800009b4:	fd010113          	addi	sp,sp,-48
800009b8:	02812423          	sw	s0,40(sp)
800009bc:	02112623          	sw	ra,44(sp)
800009c0:	00c10413          	addi	s0,sp,12
800009c4:	01b10713          	addi	a4,sp,27
800009c8:	00900893          	li	a7,9
800009cc:	0080006f          	j	800009d4 <printhex+0x20>
800009d0:	00078713          	mv	a4,a5
800009d4:	00f57693          	andi	a3,a0,15
800009d8:	01c59813          	slli	a6,a1,0x1c
800009dc:	00455513          	srli	a0,a0,0x4
800009e0:	05700613          	li	a2,87
800009e4:	0ff6f793          	andi	a5,a3,255
800009e8:	00d8e463          	bltu	a7,a3,800009f0 <printhex+0x3c>
800009ec:	03000613          	li	a2,48
800009f0:	00c787b3          	add	a5,a5,a2
800009f4:	00f70023          	sb	a5,0(a4)
800009f8:	00a86533          	or	a0,a6,a0
800009fc:	fff70793          	addi	a5,a4,-1
80000a00:	0045d593          	srli	a1,a1,0x4
80000a04:	fce416e3          	bne	s0,a4,800009d0 <printhex+0x1c>
80000a08:	00c14503          	lbu	a0,12(sp)
80000a0c:	00010e23          	sb	zero,28(sp)
80000a10:	00050a63          	beqz	a0,80000a24 <printhex+0x70>
80000a14:	00140413          	addi	s0,s0,1
80000a18:	855ff0ef          	jal	ra,8000026c <putchar>
80000a1c:	00044503          	lbu	a0,0(s0)
80000a20:	fe051ae3          	bnez	a0,80000a14 <printhex+0x60>
80000a24:	02c12083          	lw	ra,44(sp)
80000a28:	02812403          	lw	s0,40(sp)
80000a2c:	03010113          	addi	sp,sp,48
80000a30:	00008067          	ret

80000a34 <printf>:
80000a34:	fc010113          	addi	sp,sp,-64
80000a38:	02410313          	addi	t1,sp,36
80000a3c:	02b12223          	sw	a1,36(sp)
80000a40:	02c12423          	sw	a2,40(sp)
80000a44:	02d12623          	sw	a3,44(sp)
80000a48:	00050613          	mv	a2,a0
80000a4c:	00030693          	mv	a3,t1
80000a50:	00000517          	auipc	a0,0x0
80000a54:	81c50513          	addi	a0,a0,-2020 # 8000026c <putchar>
80000a58:	00000593          	li	a1,0
80000a5c:	00112e23          	sw	ra,28(sp)
80000a60:	02e12823          	sw	a4,48(sp)
80000a64:	02f12a23          	sw	a5,52(sp)
80000a68:	03012c23          	sw	a6,56(sp)
80000a6c:	03112e23          	sw	a7,60(sp)
80000a70:	00612623          	sw	t1,12(sp)
80000a74:	851ff0ef          	jal	ra,800002c4 <vprintfmt>
80000a78:	01c12083          	lw	ra,28(sp)
80000a7c:	00000513          	li	a0,0
80000a80:	04010113          	addi	sp,sp,64
80000a84:	00008067          	ret

80000a88 <sprintf>:
80000a88:	fb010113          	addi	sp,sp,-80
80000a8c:	03810313          	addi	t1,sp,56
80000a90:	02812423          	sw	s0,40(sp)
80000a94:	00a12623          	sw	a0,12(sp)
80000a98:	02c12c23          	sw	a2,56(sp)
80000a9c:	02d12e23          	sw	a3,60(sp)
80000aa0:	00050413          	mv	s0,a0
80000aa4:	00058613          	mv	a2,a1
80000aa8:	00000517          	auipc	a0,0x0
80000aac:	d3850513          	addi	a0,a0,-712 # 800007e0 <sprintf_putch.2590>
80000ab0:	00c10593          	addi	a1,sp,12
80000ab4:	00030693          	mv	a3,t1
80000ab8:	02112623          	sw	ra,44(sp)
80000abc:	04f12223          	sw	a5,68(sp)
80000ac0:	04e12023          	sw	a4,64(sp)
80000ac4:	05012423          	sw	a6,72(sp)
80000ac8:	05112623          	sw	a7,76(sp)
80000acc:	00612e23          	sw	t1,28(sp)
80000ad0:	ff4ff0ef          	jal	ra,800002c4 <vprintfmt>
80000ad4:	00c12783          	lw	a5,12(sp)
80000ad8:	00078023          	sb	zero,0(a5)
80000adc:	00c12503          	lw	a0,12(sp)
80000ae0:	02c12083          	lw	ra,44(sp)
80000ae4:	40850533          	sub	a0,a0,s0
80000ae8:	02812403          	lw	s0,40(sp)
80000aec:	05010113          	addi	sp,sp,80
80000af0:	00008067          	ret

80000af4 <memcpy>:
80000af4:	00c5e7b3          	or	a5,a1,a2
80000af8:	00f567b3          	or	a5,a0,a5
80000afc:	0037f793          	andi	a5,a5,3
80000b00:	00c506b3          	add	a3,a0,a2
80000b04:	02078463          	beqz	a5,80000b2c <memcpy+0x38>
80000b08:	00c58633          	add	a2,a1,a2
80000b0c:	00050793          	mv	a5,a0
80000b10:	02d57e63          	bgeu	a0,a3,80000b4c <memcpy+0x58>
80000b14:	00158593          	addi	a1,a1,1
80000b18:	fff5c703          	lbu	a4,-1(a1)
80000b1c:	00178793          	addi	a5,a5,1
80000b20:	fee78fa3          	sb	a4,-1(a5)
80000b24:	feb618e3          	bne	a2,a1,80000b14 <memcpy+0x20>
80000b28:	00008067          	ret
80000b2c:	fed57ee3          	bgeu	a0,a3,80000b28 <memcpy+0x34>
80000b30:	00050793          	mv	a5,a0
80000b34:	00458593          	addi	a1,a1,4
80000b38:	ffc5a703          	lw	a4,-4(a1)
80000b3c:	00478793          	addi	a5,a5,4
80000b40:	fee7ae23          	sw	a4,-4(a5)
80000b44:	fed7e8e3          	bltu	a5,a3,80000b34 <memcpy+0x40>
80000b48:	00008067          	ret
80000b4c:	00008067          	ret

80000b50 <memset>:
80000b50:	00c567b3          	or	a5,a0,a2
80000b54:	0037f793          	andi	a5,a5,3
80000b58:	00c50633          	add	a2,a0,a2
80000b5c:	02078063          	beqz	a5,80000b7c <memset+0x2c>
80000b60:	0ff5f593          	andi	a1,a1,255
80000b64:	00050793          	mv	a5,a0
80000b68:	04c57063          	bgeu	a0,a2,80000ba8 <memset+0x58>
80000b6c:	00178793          	addi	a5,a5,1
80000b70:	feb78fa3          	sb	a1,-1(a5)
80000b74:	fef61ce3          	bne	a2,a5,80000b6c <memset+0x1c>
80000b78:	00008067          	ret
80000b7c:	0ff5f593          	andi	a1,a1,255
80000b80:	00859713          	slli	a4,a1,0x8
80000b84:	00e5e733          	or	a4,a1,a4
80000b88:	01071793          	slli	a5,a4,0x10
80000b8c:	00f76733          	or	a4,a4,a5
80000b90:	fec574e3          	bgeu	a0,a2,80000b78 <memset+0x28>
80000b94:	00050793          	mv	a5,a0
80000b98:	00478793          	addi	a5,a5,4
80000b9c:	fee7ae23          	sw	a4,-4(a5)
80000ba0:	fec7ece3          	bltu	a5,a2,80000b98 <memset+0x48>
80000ba4:	00008067          	ret
80000ba8:	00008067          	ret

80000bac <_init>:
80000bac:	f8010113          	addi	sp,sp,-128
80000bb0:	06912a23          	sw	s1,116(sp)
80000bb4:	07212823          	sw	s2,112(sp)
80000bb8:	00020913          	mv	s2,tp
80000bbc:	00020493          	mv	s1,tp
80000bc0:	409904b3          	sub	s1,s2,s1
80000bc4:	00048613          	mv	a2,s1
80000bc8:	07312623          	sw	s3,108(sp)
80000bcc:	07412423          	sw	s4,104(sp)
80000bd0:	00050993          	mv	s3,a0
80000bd4:	00058a13          	mv	s4,a1
80000bd8:	00020513          	mv	a0,tp
80000bdc:	00003597          	auipc	a1,0x3
80000be0:	a0458593          	addi	a1,a1,-1532 # 800035e0 <_end>
80000be4:	06112e23          	sw	ra,124(sp)
80000be8:	07512223          	sw	s5,100(sp)
80000bec:	06812c23          	sw	s0,120(sp)
80000bf0:	00020a93          	mv	s5,tp
80000bf4:	f01ff0ef          	jal	ra,80000af4 <memcpy>
80000bf8:	00020613          	mv	a2,tp
80000bfc:	41260633          	sub	a2,a2,s2
80000c00:	00000593          	li	a1,0
80000c04:	009a8533          	add	a0,s5,s1
80000c08:	f49ff0ef          	jal	ra,80000b50 <memset>
80000c0c:	000a0593          	mv	a1,s4
80000c10:	00098513          	mv	a0,s3
80000c14:	d95ff0ef          	jal	ra,800009a8 <thread_entry>
80000c18:	00000593          	li	a1,0
80000c1c:	00000513          	li	a0,0
80000c20:	029010ef          	jal	ra,80002448 <main>
80000c24:	00003797          	auipc	a5,0x3
80000c28:	9b878793          	addi	a5,a5,-1608 # 800035dc <counters>
80000c2c:	0007a683          	lw	a3,0(a5)
80000c30:	00050493          	mv	s1,a0
80000c34:	00069663          	bnez	a3,80000c40 <_init+0x94>
80000c38:	00048513          	mv	a0,s1
80000c3c:	d19ff0ef          	jal	ra,80000954 <exit>
80000c40:	00003797          	auipc	a5,0x3
80000c44:	99878793          	addi	a5,a5,-1640 # 800035d8 <counter_names>
80000c48:	03f10413          	addi	s0,sp,63
80000c4c:	0007a603          	lw	a2,0(a5)
80000c50:	fc047413          	andi	s0,s0,-64
80000c54:	00002597          	auipc	a1,0x2
80000c58:	b5858593          	addi	a1,a1,-1192 # 800027ac <__clz_tab+0x128>
80000c5c:	00040513          	mv	a0,s0
80000c60:	e29ff0ef          	jal	ra,80000a88 <sprintf>
80000c64:	00051863          	bnez	a0,80000c74 <_init+0xc8>
80000c68:	fd1ff06f          	j	80000c38 <_init+0x8c>
80000c6c:	00140413          	addi	s0,s0,1
80000c70:	dfcff0ef          	jal	ra,8000026c <putchar>
80000c74:	00044503          	lbu	a0,0(s0)
80000c78:	fe051ae3          	bnez	a0,80000c6c <_init+0xc0>
80000c7c:	fbdff06f          	j	80000c38 <_init+0x8c>

80000c80 <strlen>:
80000c80:	00054783          	lbu	a5,0(a0)
80000c84:	00078e63          	beqz	a5,80000ca0 <strlen+0x20>
80000c88:	00050793          	mv	a5,a0
80000c8c:	00178793          	addi	a5,a5,1
80000c90:	0007c703          	lbu	a4,0(a5)
80000c94:	fe071ce3          	bnez	a4,80000c8c <strlen+0xc>
80000c98:	40a78533          	sub	a0,a5,a0
80000c9c:	00008067          	ret
80000ca0:	00000513          	li	a0,0
80000ca4:	00008067          	ret

80000ca8 <strnlen>:
80000ca8:	02058463          	beqz	a1,80000cd0 <strnlen+0x28>
80000cac:	00054783          	lbu	a5,0(a0)
80000cb0:	02078a63          	beqz	a5,80000ce4 <strnlen+0x3c>
80000cb4:	00b506b3          	add	a3,a0,a1
80000cb8:	00050793          	mv	a5,a0
80000cbc:	00c0006f          	j	80000cc8 <strnlen+0x20>
80000cc0:	0007c703          	lbu	a4,0(a5)
80000cc4:	00070a63          	beqz	a4,80000cd8 <strnlen+0x30>
80000cc8:	00178793          	addi	a5,a5,1
80000ccc:	fed79ae3          	bne	a5,a3,80000cc0 <strnlen+0x18>
80000cd0:	00058513          	mv	a0,a1
80000cd4:	00008067          	ret
80000cd8:	40a785b3          	sub	a1,a5,a0
80000cdc:	00058513          	mv	a0,a1
80000ce0:	00008067          	ret
80000ce4:	00000593          	li	a1,0
80000ce8:	fe9ff06f          	j	80000cd0 <strnlen+0x28>

80000cec <strcmp>:
80000cec:	00150513          	addi	a0,a0,1
80000cf0:	fff54783          	lbu	a5,-1(a0)
80000cf4:	00158593          	addi	a1,a1,1
80000cf8:	fff5c703          	lbu	a4,-1(a1)
80000cfc:	00078863          	beqz	a5,80000d0c <strcmp+0x20>
80000d00:	fee786e3          	beq	a5,a4,80000cec <strcmp>
80000d04:	40e78533          	sub	a0,a5,a4
80000d08:	00008067          	ret
80000d0c:	00000793          	li	a5,0
80000d10:	ff5ff06f          	j	80000d04 <strcmp+0x18>

80000d14 <strcpy>:
80000d14:	00050793          	mv	a5,a0
80000d18:	00158593          	addi	a1,a1,1
80000d1c:	fff5c703          	lbu	a4,-1(a1)
80000d20:	00178793          	addi	a5,a5,1
80000d24:	fee78fa3          	sb	a4,-1(a5)
80000d28:	fe0718e3          	bnez	a4,80000d18 <strcpy+0x4>
80000d2c:	00008067          	ret

80000d30 <atol>:
80000d30:	00054783          	lbu	a5,0(a0)
80000d34:	02000713          	li	a4,32
80000d38:	00e79863          	bne	a5,a4,80000d48 <atol+0x18>
80000d3c:	00150513          	addi	a0,a0,1
80000d40:	00054783          	lbu	a5,0(a0)
80000d44:	fee78ce3          	beq	a5,a4,80000d3c <atol+0xc>
80000d48:	fd578713          	addi	a4,a5,-43
80000d4c:	0fd77713          	andi	a4,a4,253
80000d50:	04070263          	beqz	a4,80000d94 <atol+0x64>
80000d54:	00054683          	lbu	a3,0(a0)
80000d58:	00050793          	mv	a5,a0
80000d5c:	00000613          	li	a2,0
80000d60:	04068863          	beqz	a3,80000db0 <atol+0x80>
80000d64:	00000513          	li	a0,0
80000d68:	00178793          	addi	a5,a5,1
80000d6c:	fd068593          	addi	a1,a3,-48
80000d70:	00251713          	slli	a4,a0,0x2
80000d74:	0007c683          	lbu	a3,0(a5)
80000d78:	00a70533          	add	a0,a4,a0
80000d7c:	00151513          	slli	a0,a0,0x1
80000d80:	00a58533          	add	a0,a1,a0
80000d84:	fe0692e3          	bnez	a3,80000d68 <atol+0x38>
80000d88:	00060463          	beqz	a2,80000d90 <atol+0x60>
80000d8c:	40a00533          	neg	a0,a0
80000d90:	00008067          	ret
80000d94:	00154683          	lbu	a3,1(a0)
80000d98:	fd378793          	addi	a5,a5,-45
80000d9c:	0017b613          	seqz	a2,a5
80000da0:	00150793          	addi	a5,a0,1
80000da4:	fc0690e3          	bnez	a3,80000d64 <atol+0x34>
80000da8:	00000513          	li	a0,0
80000dac:	fddff06f          	j	80000d88 <atol+0x58>
80000db0:	00000513          	li	a0,0
80000db4:	00008067          	ret

80000db8 <get_nharts>:
80000db8:	000017b7          	lui	a5,0x1
80000dbc:	00c7a783          	lw	a5,12(a5) # 100c <_tbss_end+0x100c>
80000dc0:	00800337          	lui	t1,0x800
80000dc4:	06300693          	li	a3,99
80000dc8:	0007c703          	lbu	a4,0(a5)
80000dcc:	00002617          	auipc	a2,0x2
80000dd0:	9ec60613          	addi	a2,a2,-1556 # 800027b8 <__clz_tab+0x134>
80000dd4:	01700f93          	li	t6,23
80000dd8:	01330313          	addi	t1,t1,19 # 800013 <_tbss_end+0x800013>
80000ddc:	07b00813          	li	a6,123
80000de0:	07d00293          	li	t0,125
80000de4:	03b00e93          	li	t4,59
80000de8:	02f00893          	li	a7,47
80000dec:	0e070e63          	beqz	a4,80000ee8 <get_nharts+0x130>
80000df0:	00070513          	mv	a0,a4
80000df4:	ff750e13          	addi	t3,a0,-9
80000df8:	0ffe7e13          	andi	t3,t3,255
80000dfc:	01c35f33          	srl	t5,t1,t3
80000e00:	00078593          	mv	a1,a5
80000e04:	001f7f13          	andi	t5,t5,1
80000e08:	17cfe663          	bltu	t6,t3,80000f74 <get_nharts+0x1bc>
80000e0c:	140f1663          	bnez	t5,80000f58 <get_nharts+0x1a0>
80000e10:	03168663          	beq	a3,a7,80000e3c <get_nharts+0x84>
80000e14:	02d51463          	bne	a0,a3,80000e3c <get_nharts+0x84>
80000e18:	00060693          	mv	a3,a2
80000e1c:	00168693          	addi	a3,a3,1
80000e20:	0006c503          	lbu	a0,0(a3)
80000e24:	00158593          	addi	a1,a1,1
80000e28:	14050c63          	beqz	a0,80000f80 <get_nharts+0x1c8>
80000e2c:	15150a63          	beq	a0,a7,80000f80 <get_nharts+0x1c8>
80000e30:	0005ce03          	lbu	t3,0(a1)
80000e34:	000e0463          	beqz	t3,80000e3c <get_nharts+0x84>
80000e38:	ffc502e3          	beq	a0,t3,80000e1c <get_nharts+0x64>
80000e3c:	0b070a63          	beq	a4,a6,80000ef0 <get_nharts+0x138>
80000e40:	21d70063          	beq	a4,t4,80001040 <get_nharts+0x288>
80000e44:	00178793          	addi	a5,a5,1
80000e48:	0007c703          	lbu	a4,0(a5)
80000e4c:	fe0718e3          	bnez	a4,80000e3c <get_nharts+0x84>
80000e50:	00064683          	lbu	a3,0(a2)
80000e54:	f8069ce3          	bnez	a3,80000dec <get_nharts+0x34>
80000e58:	08070863          	beqz	a4,80000ee8 <get_nharts+0x130>
80000e5c:	00800637          	lui	a2,0x800
80000e60:	01700593          	li	a1,23
80000e64:	01360613          	addi	a2,a2,19 # 800013 <_tbss_end+0x800013>
80000e68:	ff770713          	addi	a4,a4,-9
80000e6c:	0ff77713          	andi	a4,a4,255
80000e70:	00e656b3          	srl	a3,a2,a4
80000e74:	0016f693          	andi	a3,a3,1
80000e78:	00e5e463          	bltu	a1,a4,80000e80 <get_nharts+0xc8>
80000e7c:	1a069863          	bnez	a3,8000102c <get_nharts+0x274>
80000e80:	0007c683          	lbu	a3,0(a5)
80000e84:	06068263          	beqz	a3,80000ee8 <get_nharts+0x130>
80000e88:	ff768713          	addi	a4,a3,-9
80000e8c:	0ff77613          	andi	a2,a4,255
80000e90:	01700693          	li	a3,23
80000e94:	12c6e263          	bltu	a3,a2,80000fb8 <get_nharts+0x200>
80000e98:	008006b7          	lui	a3,0x800
80000e9c:	01368693          	addi	a3,a3,19 # 800013 <_tbss_end+0x800013>
80000ea0:	00c6d6b3          	srl	a3,a3,a2
80000ea4:	0016f693          	andi	a3,a3,1
80000ea8:	10068863          	beqz	a3,80000fb8 <get_nharts+0x200>
80000eac:	00800637          	lui	a2,0x800
80000eb0:	01700593          	li	a1,23
80000eb4:	01360613          	addi	a2,a2,19 # 800013 <_tbss_end+0x800013>
80000eb8:	0ff77713          	andi	a4,a4,255
80000ebc:	00e656b3          	srl	a3,a2,a4
80000ec0:	0016f693          	andi	a3,a3,1
80000ec4:	00e5e463          	bltu	a1,a4,80000ecc <get_nharts+0x114>
80000ec8:	12069263          	bnez	a3,80000fec <get_nharts+0x234>
80000ecc:	0007c703          	lbu	a4,0(a5)
80000ed0:	00070c63          	beqz	a4,80000ee8 <get_nharts+0x130>
80000ed4:	07b00693          	li	a3,123
80000ed8:	16d70e63          	beq	a4,a3,80001054 <get_nharts+0x29c>
80000edc:	00178793          	addi	a5,a5,1
80000ee0:	0007c703          	lbu	a4,0(a5)
80000ee4:	fe071ae3          	bnez	a4,80000ed8 <get_nharts+0x120>
80000ee8:	fff00513          	li	a0,-1
80000eec:	00008067          	ret
80000ef0:	0017ce03          	lbu	t3,1(a5)
80000ef4:	00178593          	addi	a1,a5,1
80000ef8:	00064683          	lbu	a3,0(a2)
80000efc:	00100513          	li	a0,1
80000f00:	00000713          	li	a4,0
80000f04:	00058793          	mv	a5,a1
80000f08:	020e1063          	bnez	t3,80000f28 <get_nharts+0x170>
80000f0c:	f49ff06f          	j	80000e54 <get_nharts+0x9c>
80000f10:	025e1463          	bne	t3,t0,80000f38 <get_nharts+0x180>
80000f14:	fff50513          	addi	a0,a0,-1
80000f18:	f2070ee3          	beqz	a4,80000e54 <get_nharts+0x9c>
80000f1c:	02050463          	beqz	a0,80000f44 <get_nharts+0x18c>
80000f20:	00078593          	mv	a1,a5
80000f24:	00070e13          	mv	t3,a4
80000f28:	0015c703          	lbu	a4,1(a1)
80000f2c:	00158793          	addi	a5,a1,1
80000f30:	ff0e10e3          	bne	t3,a6,80000f10 <get_nharts+0x158>
80000f34:	00150513          	addi	a0,a0,1
80000f38:	fe0714e3          	bnez	a4,80000f20 <get_nharts+0x168>
80000f3c:	ea0698e3          	bnez	a3,80000dec <get_nharts+0x34>
80000f40:	f19ff06f          	j	80000e58 <get_nharts+0xa0>
80000f44:	f1d718e3          	bne	a4,t4,80000e54 <get_nharts+0x9c>
80000f48:	0025c703          	lbu	a4,2(a1)
80000f4c:	00258793          	addi	a5,a1,2
80000f50:	e8069ee3          	bnez	a3,80000dec <get_nharts+0x34>
80000f54:	f05ff06f          	j	80000e58 <get_nharts+0xa0>
80000f58:	00158593          	addi	a1,a1,1
80000f5c:	0005c503          	lbu	a0,0(a1)
80000f60:	ff750e13          	addi	t3,a0,-9
80000f64:	0ffe7e13          	andi	t3,t3,255
80000f68:	01c35f33          	srl	t5,t1,t3
80000f6c:	001f7f13          	andi	t5,t5,1
80000f70:	e9cffee3          	bgeu	t6,t3,80000e0c <get_nharts+0x54>
80000f74:	ed1684e3          	beq	a3,a7,80000e3c <get_nharts+0x84>
80000f78:	e8051ee3          	bnez	a0,80000e14 <get_nharts+0x5c>
80000f7c:	ec1ff06f          	j	80000e3c <get_nharts+0x84>
80000f80:	0005c683          	lbu	a3,0(a1)
80000f84:	ff768693          	addi	a3,a3,-9
80000f88:	0ff6f693          	andi	a3,a3,255
80000f8c:	eadfe8e3          	bltu	t6,a3,80000e3c <get_nharts+0x84>
80000f90:	00d356b3          	srl	a3,t1,a3
80000f94:	0016f693          	andi	a3,a3,1
80000f98:	00069863          	bnez	a3,80000fa8 <get_nharts+0x1f0>
80000f9c:	ea1ff06f          	j	80000e3c <get_nharts+0x84>
80000fa0:	07158063          	beq	a1,a7,80001000 <get_nharts+0x248>
80000fa4:	00068613          	mv	a2,a3
80000fa8:	00164583          	lbu	a1,1(a2)
80000fac:	00160693          	addi	a3,a2,1
80000fb0:	fe0598e3          	bnez	a1,80000fa0 <get_nharts+0x1e8>
80000fb4:	ea9ff06f          	j	80000e5c <get_nharts+0xa4>
80000fb8:	00800637          	lui	a2,0x800
80000fbc:	01700813          	li	a6,23
80000fc0:	01360613          	addi	a2,a2,19 # 800013 <_tbss_end+0x800013>
80000fc4:	00178793          	addi	a5,a5,1
80000fc8:	0007c683          	lbu	a3,0(a5)
80000fcc:	ff768713          	addi	a4,a3,-9
80000fd0:	0ff77513          	andi	a0,a4,255
80000fd4:	00a655b3          	srl	a1,a2,a0
80000fd8:	0015f593          	andi	a1,a1,1
80000fdc:	f00686e3          	beqz	a3,80000ee8 <get_nharts+0x130>
80000fe0:	fea862e3          	bltu	a6,a0,80000fc4 <get_nharts+0x20c>
80000fe4:	fe0580e3          	beqz	a1,80000fc4 <get_nharts+0x20c>
80000fe8:	ec5ff06f          	j	80000eac <get_nharts+0xf4>
80000fec:	00178793          	addi	a5,a5,1
80000ff0:	0007c683          	lbu	a3,0(a5)
80000ff4:	ee068ae3          	beqz	a3,80000ee8 <get_nharts+0x130>
80000ff8:	ff768713          	addi	a4,a3,-9
80000ffc:	ebdff06f          	j	80000eb8 <get_nharts+0x100>
80001000:	0016c683          	lbu	a3,1(a3)
80001004:	00260613          	addi	a2,a2,2
80001008:	e4068ae3          	beqz	a3,80000e5c <get_nharts+0xa4>
8000100c:	01070a63          	beq	a4,a6,80001020 <get_nharts+0x268>
80001010:	00178793          	addi	a5,a5,1
80001014:	0007c703          	lbu	a4,0(a5)
80001018:	ec0708e3          	beqz	a4,80000ee8 <get_nharts+0x130>
8000101c:	ff071ae3          	bne	a4,a6,80001010 <get_nharts+0x258>
80001020:	0017c703          	lbu	a4,1(a5)
80001024:	00178793          	addi	a5,a5,1
80001028:	dc5ff06f          	j	80000dec <get_nharts+0x34>
8000102c:	00178793          	addi	a5,a5,1
80001030:	0007c703          	lbu	a4,0(a5)
80001034:	e2071ae3          	bnez	a4,80000e68 <get_nharts+0xb0>
80001038:	fff00513          	li	a0,-1
8000103c:	00008067          	ret
80001040:	00064683          	lbu	a3,0(a2)
80001044:	0017c703          	lbu	a4,1(a5)
80001048:	00178793          	addi	a5,a5,1
8000104c:	da0690e3          	bnez	a3,80000dec <get_nharts+0x34>
80001050:	e09ff06f          	j	80000e58 <get_nharts+0xa0>
80001054:	0017c703          	lbu	a4,1(a5)
80001058:	00178793          	addi	a5,a5,1
8000105c:	e80706e3          	beqz	a4,80000ee8 <get_nharts+0x130>
80001060:	00800337          	lui	t1,0x800
80001064:	00000513          	li	a0,0
80001068:	07b00893          	li	a7,123
8000106c:	03b00813          	li	a6,59
80001070:	07d00e13          	li	t3,125
80001074:	01700e93          	li	t4,23
80001078:	01330313          	addi	t1,t1,19 # 800013 <_tbss_end+0x800013>
8000107c:	05170663          	beq	a4,a7,800010c8 <get_nharts+0x310>
80001080:	01070a63          	beq	a4,a6,80001094 <get_nharts+0x2dc>
80001084:	00178793          	addi	a5,a5,1
80001088:	0007c703          	lbu	a4,0(a5)
8000108c:	fe0718e3          	bnez	a4,8000107c <get_nharts+0x2c4>
80001090:	00008067          	ret
80001094:	0017c703          	lbu	a4,1(a5)
80001098:	00178793          	addi	a5,a5,1
8000109c:	0a070863          	beqz	a4,8000114c <get_nharts+0x394>
800010a0:	ff770693          	addi	a3,a4,-9
800010a4:	0ff6f693          	andi	a3,a3,255
800010a8:	00d35633          	srl	a2,t1,a3
800010ac:	00167613          	andi	a2,a2,1
800010b0:	06deee63          	bltu	t4,a3,8000112c <get_nharts+0x374>
800010b4:	04061c63          	bnez	a2,8000110c <get_nharts+0x354>
800010b8:	00150513          	addi	a0,a0,1
800010bc:	0007c703          	lbu	a4,0(a5)
800010c0:	fc0708e3          	beqz	a4,80001090 <get_nharts+0x2d8>
800010c4:	fb171ee3          	bne	a4,a7,80001080 <get_nharts+0x2c8>
800010c8:	0017c583          	lbu	a1,1(a5)
800010cc:	00178693          	addi	a3,a5,1
800010d0:	06058c63          	beqz	a1,80001148 <get_nharts+0x390>
800010d4:	00100613          	li	a2,1
800010d8:	01c0006f          	j	800010f4 <get_nharts+0x33c>
800010dc:	03c59463          	bne	a1,t3,80001104 <get_nharts+0x34c>
800010e0:	fff60613          	addi	a2,a2,-1
800010e4:	fa0706e3          	beqz	a4,80001090 <get_nharts+0x2d8>
800010e8:	04060863          	beqz	a2,80001138 <get_nharts+0x380>
800010ec:	00078693          	mv	a3,a5
800010f0:	00070593          	mv	a1,a4
800010f4:	0016c703          	lbu	a4,1(a3)
800010f8:	00168793          	addi	a5,a3,1
800010fc:	ff1590e3          	bne	a1,a7,800010dc <get_nharts+0x324>
80001100:	00160613          	addi	a2,a2,1
80001104:	fe0714e3          	bnez	a4,800010ec <get_nharts+0x334>
80001108:	00008067          	ret
8000110c:	00178793          	addi	a5,a5,1
80001110:	0007c703          	lbu	a4,0(a5)
80001114:	f6070ee3          	beqz	a4,80001090 <get_nharts+0x2d8>
80001118:	ff770693          	addi	a3,a4,-9
8000111c:	0ff6f693          	andi	a3,a3,255
80001120:	00d35633          	srl	a2,t1,a3
80001124:	00167613          	andi	a2,a2,1
80001128:	f8def6e3          	bgeu	t4,a3,800010b4 <get_nharts+0x2fc>
8000112c:	00150513          	addi	a0,a0,1
80001130:	f9c716e3          	bne	a4,t3,800010bc <get_nharts+0x304>
80001134:	00008067          	ret
80001138:	f70714e3          	bne	a4,a6,800010a0 <get_nharts+0x2e8>
8000113c:	00268793          	addi	a5,a3,2
80001140:	0026c703          	lbu	a4,2(a3)
80001144:	f59ff06f          	j	8000109c <get_nharts+0x2e4>
80001148:	00008067          	ret
8000114c:	00008067          	ret

80001150 <__moddi3>:
80001150:	fc010113          	addi	sp,sp,-64
80001154:	02812c23          	sw	s0,56(sp)
80001158:	02912a23          	sw	s1,52(sp)
8000115c:	03212823          	sw	s2,48(sp)
80001160:	02112e23          	sw	ra,60(sp)
80001164:	03312623          	sw	s3,44(sp)
80001168:	03412423          	sw	s4,40(sp)
8000116c:	03512223          	sw	s5,36(sp)
80001170:	03612023          	sw	s6,32(sp)
80001174:	01712e23          	sw	s7,28(sp)
80001178:	01812c23          	sw	s8,24(sp)
8000117c:	01912a23          	sw	s9,20(sp)
80001180:	01a12823          	sw	s10,16(sp)
80001184:	01b12623          	sw	s11,12(sp)
80001188:	00058493          	mv	s1,a1
8000118c:	00050413          	mv	s0,a0
80001190:	00000913          	li	s2,0
80001194:	1605ce63          	bltz	a1,80001310 <__moddi3+0x1c0>
80001198:	0006da63          	bgez	a3,800011ac <__moddi3+0x5c>
8000119c:	40c00633          	neg	a2,a2
800011a0:	00c037b3          	snez	a5,a2
800011a4:	40d006b3          	neg	a3,a3
800011a8:	40f686b3          	sub	a3,a3,a5
800011ac:	00068a13          	mv	s4,a3
800011b0:	00060993          	mv	s3,a2
800011b4:	00040a93          	mv	s5,s0
800011b8:	00048b93          	mv	s7,s1
800011bc:	24069663          	bnez	a3,80001408 <__moddi3+0x2b8>
800011c0:	16c4f463          	bgeu	s1,a2,80001328 <__moddi3+0x1d8>
800011c4:	000107b7          	lui	a5,0x10
800011c8:	2cf67663          	bgeu	a2,a5,80001494 <__moddi3+0x344>
800011cc:	0ff00793          	li	a5,255
800011d0:	00060713          	mv	a4,a2
800011d4:	00c7f663          	bgeu	a5,a2,800011e0 <__moddi3+0x90>
800011d8:	00865713          	srli	a4,a2,0x8
800011dc:	00800a13          	li	s4,8
800011e0:	00002797          	auipc	a5,0x2
800011e4:	3ec7a783          	lw	a5,1004(a5) # 800035cc <_GLOBAL_OFFSET_TABLE_+0x4>
800011e8:	00e787b3          	add	a5,a5,a4
800011ec:	0007c783          	lbu	a5,0(a5)
800011f0:	02000513          	li	a0,32
800011f4:	014787b3          	add	a5,a5,s4
800011f8:	40f50a33          	sub	s4,a0,a5
800011fc:	000a0c63          	beqz	s4,80001214 <__moddi3+0xc4>
80001200:	014494b3          	sll	s1,s1,s4
80001204:	00f45bb3          	srl	s7,s0,a5
80001208:	014619b3          	sll	s3,a2,s4
8000120c:	009bebb3          	or	s7,s7,s1
80001210:	01441ab3          	sll	s5,s0,s4
80001214:	0109dc13          	srli	s8,s3,0x10
80001218:	000c0593          	mv	a1,s8
8000121c:	000b8513          	mv	a0,s7
80001220:	1c4010ef          	jal	ra,800023e4 <__umodsi3>
80001224:	00050b13          	mv	s6,a0
80001228:	000c0593          	mv	a1,s8
8000122c:	000b8513          	mv	a0,s7
80001230:	01099b93          	slli	s7,s3,0x10
80001234:	168010ef          	jal	ra,8000239c <__udivsi3>
80001238:	010bdb93          	srli	s7,s7,0x10
8000123c:	00050593          	mv	a1,a0
80001240:	000b8513          	mv	a0,s7
80001244:	12c010ef          	jal	ra,80002370 <__mulsi3>
80001248:	010b1b13          	slli	s6,s6,0x10
8000124c:	010ad793          	srli	a5,s5,0x10
80001250:	00fb67b3          	or	a5,s6,a5
80001254:	00a7f863          	bgeu	a5,a0,80001264 <__moddi3+0x114>
80001258:	013787b3          	add	a5,a5,s3
8000125c:	0137e463          	bltu	a5,s3,80001264 <__moddi3+0x114>
80001260:	50a7e463          	bltu	a5,a0,80001768 <__moddi3+0x618>
80001264:	40a78433          	sub	s0,a5,a0
80001268:	000c0593          	mv	a1,s8
8000126c:	00040513          	mv	a0,s0
80001270:	174010ef          	jal	ra,800023e4 <__umodsi3>
80001274:	00050493          	mv	s1,a0
80001278:	000c0593          	mv	a1,s8
8000127c:	00040513          	mv	a0,s0
80001280:	11c010ef          	jal	ra,8000239c <__udivsi3>
80001284:	00050593          	mv	a1,a0
80001288:	000b8513          	mv	a0,s7
8000128c:	0e4010ef          	jal	ra,80002370 <__mulsi3>
80001290:	010a9793          	slli	a5,s5,0x10
80001294:	01049493          	slli	s1,s1,0x10
80001298:	0107d793          	srli	a5,a5,0x10
8000129c:	00f4e7b3          	or	a5,s1,a5
800012a0:	00a7fa63          	bgeu	a5,a0,800012b4 <__moddi3+0x164>
800012a4:	013787b3          	add	a5,a5,s3
800012a8:	0137e663          	bltu	a5,s3,800012b4 <__moddi3+0x164>
800012ac:	00a7f463          	bgeu	a5,a0,800012b4 <__moddi3+0x164>
800012b0:	013787b3          	add	a5,a5,s3
800012b4:	40a78533          	sub	a0,a5,a0
800012b8:	01455533          	srl	a0,a0,s4
800012bc:	00000593          	li	a1,0
800012c0:	00090a63          	beqz	s2,800012d4 <__moddi3+0x184>
800012c4:	40a00533          	neg	a0,a0
800012c8:	00a037b3          	snez	a5,a0
800012cc:	40b004b3          	neg	s1,a1
800012d0:	40f485b3          	sub	a1,s1,a5
800012d4:	03c12083          	lw	ra,60(sp)
800012d8:	03812403          	lw	s0,56(sp)
800012dc:	03412483          	lw	s1,52(sp)
800012e0:	03012903          	lw	s2,48(sp)
800012e4:	02c12983          	lw	s3,44(sp)
800012e8:	02812a03          	lw	s4,40(sp)
800012ec:	02412a83          	lw	s5,36(sp)
800012f0:	02012b03          	lw	s6,32(sp)
800012f4:	01c12b83          	lw	s7,28(sp)
800012f8:	01812c03          	lw	s8,24(sp)
800012fc:	01412c83          	lw	s9,20(sp)
80001300:	01012d03          	lw	s10,16(sp)
80001304:	00c12d83          	lw	s11,12(sp)
80001308:	04010113          	addi	sp,sp,64
8000130c:	00008067          	ret
80001310:	40a00433          	neg	s0,a0
80001314:	008037b3          	snez	a5,s0
80001318:	40b004b3          	neg	s1,a1
8000131c:	40f484b3          	sub	s1,s1,a5
80001320:	fff00913          	li	s2,-1
80001324:	e75ff06f          	j	80001198 <__moddi3+0x48>
80001328:	00061a63          	bnez	a2,8000133c <__moddi3+0x1ec>
8000132c:	00000593          	li	a1,0
80001330:	00100513          	li	a0,1
80001334:	068010ef          	jal	ra,8000239c <__udivsi3>
80001338:	00050993          	mv	s3,a0
8000133c:	000107b7          	lui	a5,0x10
80001340:	12f9ee63          	bltu	s3,a5,8000147c <__moddi3+0x32c>
80001344:	010007b7          	lui	a5,0x1000
80001348:	3ef9e063          	bltu	s3,a5,80001728 <__moddi3+0x5d8>
8000134c:	0189d713          	srli	a4,s3,0x18
80001350:	01800a13          	li	s4,24
80001354:	00002797          	auipc	a5,0x2
80001358:	2787a783          	lw	a5,632(a5) # 800035cc <_GLOBAL_OFFSET_TABLE_+0x4>
8000135c:	00e787b3          	add	a5,a5,a4
80001360:	0007c783          	lbu	a5,0(a5)
80001364:	02000513          	li	a0,32
80001368:	014787b3          	add	a5,a5,s4
8000136c:	40f50a33          	sub	s4,a0,a5
80001370:	120a1c63          	bnez	s4,800014a8 <__moddi3+0x358>
80001374:	01099c13          	slli	s8,s3,0x10
80001378:	413484b3          	sub	s1,s1,s3
8000137c:	0109db93          	srli	s7,s3,0x10
80001380:	010c5c13          	srli	s8,s8,0x10
80001384:	000b8593          	mv	a1,s7
80001388:	00048513          	mv	a0,s1
8000138c:	058010ef          	jal	ra,800023e4 <__umodsi3>
80001390:	00050b13          	mv	s6,a0
80001394:	000b8593          	mv	a1,s7
80001398:	00048513          	mv	a0,s1
8000139c:	000010ef          	jal	ra,8000239c <__udivsi3>
800013a0:	000c0593          	mv	a1,s8
800013a4:	7cd000ef          	jal	ra,80002370 <__mulsi3>
800013a8:	010b1b13          	slli	s6,s6,0x10
800013ac:	010ad793          	srli	a5,s5,0x10
800013b0:	00fb67b3          	or	a5,s6,a5
800013b4:	00a7fa63          	bgeu	a5,a0,800013c8 <__moddi3+0x278>
800013b8:	013787b3          	add	a5,a5,s3
800013bc:	0137e663          	bltu	a5,s3,800013c8 <__moddi3+0x278>
800013c0:	00a7f463          	bgeu	a5,a0,800013c8 <__moddi3+0x278>
800013c4:	013787b3          	add	a5,a5,s3
800013c8:	40a78433          	sub	s0,a5,a0
800013cc:	000b8593          	mv	a1,s7
800013d0:	00040513          	mv	a0,s0
800013d4:	010010ef          	jal	ra,800023e4 <__umodsi3>
800013d8:	00050493          	mv	s1,a0
800013dc:	000b8593          	mv	a1,s7
800013e0:	00040513          	mv	a0,s0
800013e4:	7b9000ef          	jal	ra,8000239c <__udivsi3>
800013e8:	000c0593          	mv	a1,s8
800013ec:	010a9a93          	slli	s5,s5,0x10
800013f0:	781000ef          	jal	ra,80002370 <__mulsi3>
800013f4:	01049493          	slli	s1,s1,0x10
800013f8:	010ada93          	srli	s5,s5,0x10
800013fc:	0154e7b3          	or	a5,s1,s5
80001400:	eaa7fae3          	bgeu	a5,a0,800012b4 <__moddi3+0x164>
80001404:	ea1ff06f          	j	800012a4 <__moddi3+0x154>
80001408:	00040513          	mv	a0,s0
8000140c:	04d4ea63          	bltu	s1,a3,80001460 <__moddi3+0x310>
80001410:	000107b7          	lui	a5,0x10
80001414:	04f6ea63          	bltu	a3,a5,80001468 <__moddi3+0x318>
80001418:	010007b7          	lui	a5,0x1000
8000141c:	30f6ec63          	bltu	a3,a5,80001734 <__moddi3+0x5e4>
80001420:	0186d593          	srli	a1,a3,0x18
80001424:	01800713          	li	a4,24
80001428:	00002797          	auipc	a5,0x2
8000142c:	1a47a783          	lw	a5,420(a5) # 800035cc <_GLOBAL_OFFSET_TABLE_+0x4>
80001430:	00b787b3          	add	a5,a5,a1
80001434:	0007ca83          	lbu	s5,0(a5)
80001438:	02000593          	li	a1,32
8000143c:	00ea8ab3          	add	s5,s5,a4
80001440:	41558a33          	sub	s4,a1,s5
80001444:	120a1463          	bnez	s4,8000156c <__moddi3+0x41c>
80001448:	0096e463          	bltu	a3,s1,80001450 <__moddi3+0x300>
8000144c:	00c46a63          	bltu	s0,a2,80001460 <__moddi3+0x310>
80001450:	40c40533          	sub	a0,s0,a2
80001454:	40d486b3          	sub	a3,s1,a3
80001458:	00a43433          	sltu	s0,s0,a0
8000145c:	408684b3          	sub	s1,a3,s0
80001460:	00048593          	mv	a1,s1
80001464:	e5dff06f          	j	800012c0 <__moddi3+0x170>
80001468:	0ff00793          	li	a5,255
8000146c:	2ed7f063          	bgeu	a5,a3,8000174c <__moddi3+0x5fc>
80001470:	0086d593          	srli	a1,a3,0x8
80001474:	00800713          	li	a4,8
80001478:	fb1ff06f          	j	80001428 <__moddi3+0x2d8>
8000147c:	0ff00793          	li	a5,255
80001480:	00098713          	mv	a4,s3
80001484:	ed37f8e3          	bgeu	a5,s3,80001354 <__moddi3+0x204>
80001488:	0089d713          	srli	a4,s3,0x8
8000148c:	00800a13          	li	s4,8
80001490:	ec5ff06f          	j	80001354 <__moddi3+0x204>
80001494:	010007b7          	lui	a5,0x1000
80001498:	2af66463          	bltu	a2,a5,80001740 <__moddi3+0x5f0>
8000149c:	01865713          	srli	a4,a2,0x18
800014a0:	01800a13          	li	s4,24
800014a4:	d3dff06f          	j	800011e0 <__moddi3+0x90>
800014a8:	014999b3          	sll	s3,s3,s4
800014ac:	00f4dcb3          	srl	s9,s1,a5
800014b0:	0109db93          	srli	s7,s3,0x10
800014b4:	00f457b3          	srl	a5,s0,a5
800014b8:	000b8593          	mv	a1,s7
800014bc:	014494b3          	sll	s1,s1,s4
800014c0:	000c8513          	mv	a0,s9
800014c4:	0097eb33          	or	s6,a5,s1
800014c8:	71d000ef          	jal	ra,800023e4 <__umodsi3>
800014cc:	00050a93          	mv	s5,a0
800014d0:	000b8593          	mv	a1,s7
800014d4:	01099c13          	slli	s8,s3,0x10
800014d8:	000c8513          	mv	a0,s9
800014dc:	6c1000ef          	jal	ra,8000239c <__udivsi3>
800014e0:	010c5c13          	srli	s8,s8,0x10
800014e4:	00050593          	mv	a1,a0
800014e8:	000c0513          	mv	a0,s8
800014ec:	685000ef          	jal	ra,80002370 <__mulsi3>
800014f0:	010a9a93          	slli	s5,s5,0x10
800014f4:	010b5793          	srli	a5,s6,0x10
800014f8:	00fae7b3          	or	a5,s5,a5
800014fc:	01441ab3          	sll	s5,s0,s4
80001500:	00a7fa63          	bgeu	a5,a0,80001514 <__moddi3+0x3c4>
80001504:	013787b3          	add	a5,a5,s3
80001508:	0137e663          	bltu	a5,s3,80001514 <__moddi3+0x3c4>
8000150c:	00a7f463          	bgeu	a5,a0,80001514 <__moddi3+0x3c4>
80001510:	013787b3          	add	a5,a5,s3
80001514:	40a784b3          	sub	s1,a5,a0
80001518:	000b8593          	mv	a1,s7
8000151c:	00048513          	mv	a0,s1
80001520:	6c5000ef          	jal	ra,800023e4 <__umodsi3>
80001524:	00050413          	mv	s0,a0
80001528:	000b8593          	mv	a1,s7
8000152c:	00048513          	mv	a0,s1
80001530:	66d000ef          	jal	ra,8000239c <__udivsi3>
80001534:	010b1b13          	slli	s6,s6,0x10
80001538:	00050593          	mv	a1,a0
8000153c:	01041493          	slli	s1,s0,0x10
80001540:	000c0513          	mv	a0,s8
80001544:	010b5b13          	srli	s6,s6,0x10
80001548:	629000ef          	jal	ra,80002370 <__mulsi3>
8000154c:	0164e4b3          	or	s1,s1,s6
80001550:	00a4fa63          	bgeu	s1,a0,80001564 <__moddi3+0x414>
80001554:	013484b3          	add	s1,s1,s3
80001558:	0134e663          	bltu	s1,s3,80001564 <__moddi3+0x414>
8000155c:	00a4f463          	bgeu	s1,a0,80001564 <__moddi3+0x414>
80001560:	013484b3          	add	s1,s1,s3
80001564:	40a484b3          	sub	s1,s1,a0
80001568:	e1dff06f          	j	80001384 <__moddi3+0x234>
8000156c:	015657b3          	srl	a5,a2,s5
80001570:	014696b3          	sll	a3,a3,s4
80001574:	00d7ebb3          	or	s7,a5,a3
80001578:	0154db33          	srl	s6,s1,s5
8000157c:	010bdc13          	srli	s8,s7,0x10
80001580:	015457b3          	srl	a5,s0,s5
80001584:	000c0593          	mv	a1,s8
80001588:	000b0513          	mv	a0,s6
8000158c:	014494b3          	sll	s1,s1,s4
80001590:	0097e4b3          	or	s1,a5,s1
80001594:	014619b3          	sll	s3,a2,s4
80001598:	64d000ef          	jal	ra,800023e4 <__umodsi3>
8000159c:	00050d13          	mv	s10,a0
800015a0:	000c0593          	mv	a1,s8
800015a4:	000b0513          	mv	a0,s6
800015a8:	010b9c93          	slli	s9,s7,0x10
800015ac:	5f1000ef          	jal	ra,8000239c <__udivsi3>
800015b0:	010cdc93          	srli	s9,s9,0x10
800015b4:	00050593          	mv	a1,a0
800015b8:	00050b13          	mv	s6,a0
800015bc:	000c8513          	mv	a0,s9
800015c0:	5b1000ef          	jal	ra,80002370 <__mulsi3>
800015c4:	010d1d13          	slli	s10,s10,0x10
800015c8:	0104d713          	srli	a4,s1,0x10
800015cc:	00ed6733          	or	a4,s10,a4
800015d0:	01441433          	sll	s0,s0,s4
800015d4:	00a77e63          	bgeu	a4,a0,800015f0 <__moddi3+0x4a0>
800015d8:	01770733          	add	a4,a4,s7
800015dc:	fffb0793          	addi	a5,s6,-1
800015e0:	19776063          	bltu	a4,s7,80001760 <__moddi3+0x610>
800015e4:	16a77e63          	bgeu	a4,a0,80001760 <__moddi3+0x610>
800015e8:	ffeb0b13          	addi	s6,s6,-2
800015ec:	01770733          	add	a4,a4,s7
800015f0:	40a70d33          	sub	s10,a4,a0
800015f4:	000c0593          	mv	a1,s8
800015f8:	000d0513          	mv	a0,s10
800015fc:	5e9000ef          	jal	ra,800023e4 <__umodsi3>
80001600:	000c0593          	mv	a1,s8
80001604:	00050d93          	mv	s11,a0
80001608:	000d0513          	mv	a0,s10
8000160c:	591000ef          	jal	ra,8000239c <__udivsi3>
80001610:	01049493          	slli	s1,s1,0x10
80001614:	00050593          	mv	a1,a0
80001618:	00050c13          	mv	s8,a0
8000161c:	010d9d93          	slli	s11,s11,0x10
80001620:	000c8513          	mv	a0,s9
80001624:	0104d493          	srli	s1,s1,0x10
80001628:	549000ef          	jal	ra,80002370 <__mulsi3>
8000162c:	009de4b3          	or	s1,s11,s1
80001630:	00a4fe63          	bgeu	s1,a0,8000164c <__moddi3+0x4fc>
80001634:	017484b3          	add	s1,s1,s7
80001638:	fffc0793          	addi	a5,s8,-1
8000163c:	1174ee63          	bltu	s1,s7,80001758 <__moddi3+0x608>
80001640:	10a4fc63          	bgeu	s1,a0,80001758 <__moddi3+0x608>
80001644:	ffec0c13          	addi	s8,s8,-2
80001648:	017484b3          	add	s1,s1,s7
8000164c:	00010337          	lui	t1,0x10
80001650:	010b1b13          	slli	s6,s6,0x10
80001654:	018b6b33          	or	s6,s6,s8
80001658:	fff30713          	addi	a4,t1,-1 # ffff <_tbss_end+0xffff>
8000165c:	00eb77b3          	and	a5,s6,a4
80001660:	00e9f733          	and	a4,s3,a4
80001664:	40a484b3          	sub	s1,s1,a0
80001668:	010b5b13          	srli	s6,s6,0x10
8000166c:	0109d893          	srli	a7,s3,0x10
80001670:	00078513          	mv	a0,a5
80001674:	00070593          	mv	a1,a4
80001678:	4f9000ef          	jal	ra,80002370 <__mulsi3>
8000167c:	00050813          	mv	a6,a0
80001680:	00088593          	mv	a1,a7
80001684:	00078513          	mv	a0,a5
80001688:	4e9000ef          	jal	ra,80002370 <__mulsi3>
8000168c:	00050793          	mv	a5,a0
80001690:	00070593          	mv	a1,a4
80001694:	000b0513          	mv	a0,s6
80001698:	4d9000ef          	jal	ra,80002370 <__mulsi3>
8000169c:	00050713          	mv	a4,a0
800016a0:	00088593          	mv	a1,a7
800016a4:	000b0513          	mv	a0,s6
800016a8:	4c9000ef          	jal	ra,80002370 <__mulsi3>
800016ac:	00e787b3          	add	a5,a5,a4
800016b0:	01085693          	srli	a3,a6,0x10
800016b4:	00d787b3          	add	a5,a5,a3
800016b8:	00e7f463          	bgeu	a5,a4,800016c0 <__moddi3+0x570>
800016bc:	00650533          	add	a0,a0,t1
800016c0:	00010737          	lui	a4,0x10
800016c4:	fff70713          	addi	a4,a4,-1 # ffff <_tbss_end+0xffff>
800016c8:	0107d593          	srli	a1,a5,0x10
800016cc:	00e7f7b3          	and	a5,a5,a4
800016d0:	01079793          	slli	a5,a5,0x10
800016d4:	00e87833          	and	a6,a6,a4
800016d8:	00a585b3          	add	a1,a1,a0
800016dc:	010787b3          	add	a5,a5,a6
800016e0:	02b4e863          	bltu	s1,a1,80001710 <__moddi3+0x5c0>
800016e4:	02b48463          	beq	s1,a1,8000170c <__moddi3+0x5bc>
800016e8:	40f407b3          	sub	a5,s0,a5
800016ec:	40b485b3          	sub	a1,s1,a1
800016f0:	00f43433          	sltu	s0,s0,a5
800016f4:	408584b3          	sub	s1,a1,s0
800016f8:	01549533          	sll	a0,s1,s5
800016fc:	0147d7b3          	srl	a5,a5,s4
80001700:	00f56533          	or	a0,a0,a5
80001704:	0144d5b3          	srl	a1,s1,s4
80001708:	bb9ff06f          	j	800012c0 <__moddi3+0x170>
8000170c:	fcf47ee3          	bgeu	s0,a5,800016e8 <__moddi3+0x598>
80001710:	413789b3          	sub	s3,a5,s3
80001714:	0137b7b3          	sltu	a5,a5,s3
80001718:	017787b3          	add	a5,a5,s7
8000171c:	40f585b3          	sub	a1,a1,a5
80001720:	00098793          	mv	a5,s3
80001724:	fc5ff06f          	j	800016e8 <__moddi3+0x598>
80001728:	0109d713          	srli	a4,s3,0x10
8000172c:	01000a13          	li	s4,16
80001730:	c25ff06f          	j	80001354 <__moddi3+0x204>
80001734:	0106d593          	srli	a1,a3,0x10
80001738:	01000713          	li	a4,16
8000173c:	cedff06f          	j	80001428 <__moddi3+0x2d8>
80001740:	01065713          	srli	a4,a2,0x10
80001744:	01000a13          	li	s4,16
80001748:	a99ff06f          	j	800011e0 <__moddi3+0x90>
8000174c:	00068593          	mv	a1,a3
80001750:	00000713          	li	a4,0
80001754:	cd5ff06f          	j	80001428 <__moddi3+0x2d8>
80001758:	00078c13          	mv	s8,a5
8000175c:	ef1ff06f          	j	8000164c <__moddi3+0x4fc>
80001760:	00078b13          	mv	s6,a5
80001764:	e8dff06f          	j	800015f0 <__moddi3+0x4a0>
80001768:	013787b3          	add	a5,a5,s3
8000176c:	af9ff06f          	j	80001264 <__moddi3+0x114>

80001770 <__udivdi3>:
80001770:	fd010113          	addi	sp,sp,-48
80001774:	02812423          	sw	s0,40(sp)
80001778:	01412c23          	sw	s4,24(sp)
8000177c:	02112623          	sw	ra,44(sp)
80001780:	02912223          	sw	s1,36(sp)
80001784:	03212023          	sw	s2,32(sp)
80001788:	01312e23          	sw	s3,28(sp)
8000178c:	01512a23          	sw	s5,20(sp)
80001790:	01612823          	sw	s6,16(sp)
80001794:	01712623          	sw	s7,12(sp)
80001798:	01812423          	sw	s8,8(sp)
8000179c:	01912223          	sw	s9,4(sp)
800017a0:	00050a13          	mv	s4,a0
800017a4:	00058413          	mv	s0,a1
800017a8:	22069e63          	bnez	a3,800019e4 <__udivdi3+0x274>
800017ac:	00068993          	mv	s3,a3
800017b0:	00060493          	mv	s1,a2
800017b4:	00050913          	mv	s2,a0
800017b8:	10c5fe63          	bgeu	a1,a2,800018d4 <__udivdi3+0x164>
800017bc:	000107b7          	lui	a5,0x10
800017c0:	00058a93          	mv	s5,a1
800017c4:	2cf66e63          	bltu	a2,a5,80001aa0 <__udivdi3+0x330>
800017c8:	010007b7          	lui	a5,0x1000
800017cc:	56f66a63          	bltu	a2,a5,80001d40 <__udivdi3+0x5d0>
800017d0:	01865713          	srli	a4,a2,0x18
800017d4:	01800993          	li	s3,24
800017d8:	00002797          	auipc	a5,0x2
800017dc:	df47a783          	lw	a5,-524(a5) # 800035cc <_GLOBAL_OFFSET_TABLE_+0x4>
800017e0:	00e787b3          	add	a5,a5,a4
800017e4:	0007c783          	lbu	a5,0(a5)
800017e8:	013789b3          	add	s3,a5,s3
800017ec:	02000793          	li	a5,32
800017f0:	413787b3          	sub	a5,a5,s3
800017f4:	00078c63          	beqz	a5,8000180c <__udivdi3+0x9c>
800017f8:	00f41433          	sll	s0,s0,a5
800017fc:	013a59b3          	srl	s3,s4,s3
80001800:	00f614b3          	sll	s1,a2,a5
80001804:	0089eab3          	or	s5,s3,s0
80001808:	00fa1933          	sll	s2,s4,a5
8000180c:	0104db13          	srli	s6,s1,0x10
80001810:	000b0593          	mv	a1,s6
80001814:	000a8513          	mv	a0,s5
80001818:	3cd000ef          	jal	ra,800023e4 <__umodsi3>
8000181c:	00050a13          	mv	s4,a0
80001820:	000b0593          	mv	a1,s6
80001824:	000a8513          	mv	a0,s5
80001828:	01049a93          	slli	s5,s1,0x10
8000182c:	371000ef          	jal	ra,8000239c <__udivsi3>
80001830:	010ada93          	srli	s5,s5,0x10
80001834:	00050593          	mv	a1,a0
80001838:	00050413          	mv	s0,a0
8000183c:	000a8513          	mv	a0,s5
80001840:	331000ef          	jal	ra,80002370 <__mulsi3>
80001844:	010a1a13          	slli	s4,s4,0x10
80001848:	01095793          	srli	a5,s2,0x10
8000184c:	00fa67b3          	or	a5,s4,a5
80001850:	00a7fc63          	bgeu	a5,a0,80001868 <__udivdi3+0xf8>
80001854:	009787b3          	add	a5,a5,s1
80001858:	fff40713          	addi	a4,s0,-1
8000185c:	0097e463          	bltu	a5,s1,80001864 <__udivdi3+0xf4>
80001860:	52a7e863          	bltu	a5,a0,80001d90 <__udivdi3+0x620>
80001864:	00070413          	mv	s0,a4
80001868:	40a789b3          	sub	s3,a5,a0
8000186c:	000b0593          	mv	a1,s6
80001870:	00098513          	mv	a0,s3
80001874:	371000ef          	jal	ra,800023e4 <__umodsi3>
80001878:	00050a13          	mv	s4,a0
8000187c:	000b0593          	mv	a1,s6
80001880:	00098513          	mv	a0,s3
80001884:	319000ef          	jal	ra,8000239c <__udivsi3>
80001888:	01091913          	slli	s2,s2,0x10
8000188c:	00050593          	mv	a1,a0
80001890:	00050993          	mv	s3,a0
80001894:	010a1a13          	slli	s4,s4,0x10
80001898:	000a8513          	mv	a0,s5
8000189c:	01095913          	srli	s2,s2,0x10
800018a0:	2d1000ef          	jal	ra,80002370 <__mulsi3>
800018a4:	012a6933          	or	s2,s4,s2
800018a8:	00a97e63          	bgeu	s2,a0,800018c4 <__udivdi3+0x154>
800018ac:	01248933          	add	s2,s1,s2
800018b0:	fff98793          	addi	a5,s3,-1
800018b4:	00996663          	bltu	s2,s1,800018c0 <__udivdi3+0x150>
800018b8:	ffe98993          	addi	s3,s3,-2
800018bc:	00a96463          	bltu	s2,a0,800018c4 <__udivdi3+0x154>
800018c0:	00078993          	mv	s3,a5
800018c4:	01041513          	slli	a0,s0,0x10
800018c8:	01356533          	or	a0,a0,s3
800018cc:	00000c13          	li	s8,0
800018d0:	16c0006f          	j	80001a3c <__udivdi3+0x2cc>
800018d4:	00061a63          	bnez	a2,800018e8 <__udivdi3+0x178>
800018d8:	00000593          	li	a1,0
800018dc:	00100513          	li	a0,1
800018e0:	2bd000ef          	jal	ra,8000239c <__udivsi3>
800018e4:	00050493          	mv	s1,a0
800018e8:	000107b7          	lui	a5,0x10
800018ec:	18f4ee63          	bltu	s1,a5,80001a88 <__udivdi3+0x318>
800018f0:	010007b7          	lui	a5,0x1000
800018f4:	44f4ec63          	bltu	s1,a5,80001d4c <__udivdi3+0x5dc>
800018f8:	0184d713          	srli	a4,s1,0x18
800018fc:	01800993          	li	s3,24
80001900:	00002797          	auipc	a5,0x2
80001904:	ccc7a783          	lw	a5,-820(a5) # 800035cc <_GLOBAL_OFFSET_TABLE_+0x4>
80001908:	00e787b3          	add	a5,a5,a4
8000190c:	0007c783          	lbu	a5,0(a5)
80001910:	013789b3          	add	s3,a5,s3
80001914:	02000793          	li	a5,32
80001918:	413787b3          	sub	a5,a5,s3
8000191c:	18079e63          	bnez	a5,80001ab8 <__udivdi3+0x348>
80001920:	01049b93          	slli	s7,s1,0x10
80001924:	40940433          	sub	s0,s0,s1
80001928:	0104db13          	srli	s6,s1,0x10
8000192c:	010bdb93          	srli	s7,s7,0x10
80001930:	00100c13          	li	s8,1
80001934:	000b0593          	mv	a1,s6
80001938:	00040513          	mv	a0,s0
8000193c:	2a9000ef          	jal	ra,800023e4 <__umodsi3>
80001940:	00050a13          	mv	s4,a0
80001944:	000b0593          	mv	a1,s6
80001948:	00040513          	mv	a0,s0
8000194c:	251000ef          	jal	ra,8000239c <__udivsi3>
80001950:	000b8593          	mv	a1,s7
80001954:	00050413          	mv	s0,a0
80001958:	219000ef          	jal	ra,80002370 <__mulsi3>
8000195c:	010a1a13          	slli	s4,s4,0x10
80001960:	01095793          	srli	a5,s2,0x10
80001964:	00fa67b3          	or	a5,s4,a5
80001968:	00a7fc63          	bgeu	a5,a0,80001980 <__udivdi3+0x210>
8000196c:	009787b3          	add	a5,a5,s1
80001970:	fff40713          	addi	a4,s0,-1
80001974:	0097e463          	bltu	a5,s1,8000197c <__udivdi3+0x20c>
80001978:	42a7e263          	bltu	a5,a0,80001d9c <__udivdi3+0x62c>
8000197c:	00070413          	mv	s0,a4
80001980:	40a789b3          	sub	s3,a5,a0
80001984:	000b0593          	mv	a1,s6
80001988:	00098513          	mv	a0,s3
8000198c:	259000ef          	jal	ra,800023e4 <__umodsi3>
80001990:	00050a13          	mv	s4,a0
80001994:	000b0593          	mv	a1,s6
80001998:	00098513          	mv	a0,s3
8000199c:	201000ef          	jal	ra,8000239c <__udivsi3>
800019a0:	01091913          	slli	s2,s2,0x10
800019a4:	000b8593          	mv	a1,s7
800019a8:	010a1a13          	slli	s4,s4,0x10
800019ac:	01095913          	srli	s2,s2,0x10
800019b0:	00050993          	mv	s3,a0
800019b4:	012a6933          	or	s2,s4,s2
800019b8:	1b9000ef          	jal	ra,80002370 <__mulsi3>
800019bc:	00a97e63          	bgeu	s2,a0,800019d8 <__udivdi3+0x268>
800019c0:	01248933          	add	s2,s1,s2
800019c4:	fff98793          	addi	a5,s3,-1
800019c8:	00996663          	bltu	s2,s1,800019d4 <__udivdi3+0x264>
800019cc:	ffe98993          	addi	s3,s3,-2
800019d0:	00a96463          	bltu	s2,a0,800019d8 <__udivdi3+0x268>
800019d4:	00078993          	mv	s3,a5
800019d8:	01041513          	slli	a0,s0,0x10
800019dc:	01356533          	or	a0,a0,s3
800019e0:	05c0006f          	j	80001a3c <__udivdi3+0x2cc>
800019e4:	04d5e863          	bltu	a1,a3,80001a34 <__udivdi3+0x2c4>
800019e8:	000107b7          	lui	a5,0x10
800019ec:	08f6e463          	bltu	a3,a5,80001a74 <__udivdi3+0x304>
800019f0:	010007b7          	lui	a5,0x1000
800019f4:	34f6e063          	bltu	a3,a5,80001d34 <__udivdi3+0x5c4>
800019f8:	0186d793          	srli	a5,a3,0x18
800019fc:	01800593          	li	a1,24
80001a00:	00002717          	auipc	a4,0x2
80001a04:	bcc72703          	lw	a4,-1076(a4) # 800035cc <_GLOBAL_OFFSET_TABLE_+0x4>
80001a08:	00f70733          	add	a4,a4,a5
80001a0c:	00074783          	lbu	a5,0(a4)
80001a10:	02000b13          	li	s6,32
80001a14:	00b787b3          	add	a5,a5,a1
80001a18:	40fb0b33          	sub	s6,s6,a5
80001a1c:	180b1063          	bnez	s6,80001b9c <__udivdi3+0x42c>
80001a20:	3286ec63          	bltu	a3,s0,80001d58 <__udivdi3+0x5e8>
80001a24:	00ca3633          	sltu	a2,s4,a2
80001a28:	00164513          	xori	a0,a2,1
80001a2c:	00000c13          	li	s8,0
80001a30:	00c0006f          	j	80001a3c <__udivdi3+0x2cc>
80001a34:	00000c13          	li	s8,0
80001a38:	00000513          	li	a0,0
80001a3c:	000c0593          	mv	a1,s8
80001a40:	02c12083          	lw	ra,44(sp)
80001a44:	02812403          	lw	s0,40(sp)
80001a48:	02412483          	lw	s1,36(sp)
80001a4c:	02012903          	lw	s2,32(sp)
80001a50:	01c12983          	lw	s3,28(sp)
80001a54:	01812a03          	lw	s4,24(sp)
80001a58:	01412a83          	lw	s5,20(sp)
80001a5c:	01012b03          	lw	s6,16(sp)
80001a60:	00c12b83          	lw	s7,12(sp)
80001a64:	00812c03          	lw	s8,8(sp)
80001a68:	00412c83          	lw	s9,4(sp)
80001a6c:	03010113          	addi	sp,sp,48
80001a70:	00008067          	ret
80001a74:	0ff00793          	li	a5,255
80001a78:	2ed7f663          	bgeu	a5,a3,80001d64 <__udivdi3+0x5f4>
80001a7c:	0086d793          	srli	a5,a3,0x8
80001a80:	00800593          	li	a1,8
80001a84:	f7dff06f          	j	80001a00 <__udivdi3+0x290>
80001a88:	0ff00793          	li	a5,255
80001a8c:	00048713          	mv	a4,s1
80001a90:	e697f8e3          	bgeu	a5,s1,80001900 <__udivdi3+0x190>
80001a94:	0084d713          	srli	a4,s1,0x8
80001a98:	00800993          	li	s3,8
80001a9c:	e65ff06f          	j	80001900 <__udivdi3+0x190>
80001aa0:	0ff00793          	li	a5,255
80001aa4:	00060713          	mv	a4,a2
80001aa8:	d2c7f8e3          	bgeu	a5,a2,800017d8 <__udivdi3+0x68>
80001aac:	00865713          	srli	a4,a2,0x8
80001ab0:	00800993          	li	s3,8
80001ab4:	d25ff06f          	j	800017d8 <__udivdi3+0x68>
80001ab8:	00f494b3          	sll	s1,s1,a5
80001abc:	01345c33          	srl	s8,s0,s3
80001ac0:	0104db13          	srli	s6,s1,0x10
80001ac4:	000b0593          	mv	a1,s6
80001ac8:	000c0513          	mv	a0,s8
80001acc:	00f41433          	sll	s0,s0,a5
80001ad0:	00fa1933          	sll	s2,s4,a5
80001ad4:	013a59b3          	srl	s3,s4,s3
80001ad8:	10d000ef          	jal	ra,800023e4 <__umodsi3>
80001adc:	0089eab3          	or	s5,s3,s0
80001ae0:	000b0593          	mv	a1,s6
80001ae4:	00050993          	mv	s3,a0
80001ae8:	01049b93          	slli	s7,s1,0x10
80001aec:	000c0513          	mv	a0,s8
80001af0:	0ad000ef          	jal	ra,8000239c <__udivsi3>
80001af4:	010bdb93          	srli	s7,s7,0x10
80001af8:	00050593          	mv	a1,a0
80001afc:	00050a13          	mv	s4,a0
80001b00:	000b8513          	mv	a0,s7
80001b04:	06d000ef          	jal	ra,80002370 <__mulsi3>
80001b08:	01099993          	slli	s3,s3,0x10
80001b0c:	010ad793          	srli	a5,s5,0x10
80001b10:	00f9e7b3          	or	a5,s3,a5
80001b14:	00a7fe63          	bgeu	a5,a0,80001b30 <__udivdi3+0x3c0>
80001b18:	009787b3          	add	a5,a5,s1
80001b1c:	fffa0713          	addi	a4,s4,-1
80001b20:	2697e463          	bltu	a5,s1,80001d88 <__udivdi3+0x618>
80001b24:	26a7f263          	bgeu	a5,a0,80001d88 <__udivdi3+0x618>
80001b28:	ffea0a13          	addi	s4,s4,-2
80001b2c:	009787b3          	add	a5,a5,s1
80001b30:	40a78433          	sub	s0,a5,a0
80001b34:	000b0593          	mv	a1,s6
80001b38:	00040513          	mv	a0,s0
80001b3c:	0a9000ef          	jal	ra,800023e4 <__umodsi3>
80001b40:	00050993          	mv	s3,a0
80001b44:	000b0593          	mv	a1,s6
80001b48:	00040513          	mv	a0,s0
80001b4c:	051000ef          	jal	ra,8000239c <__udivsi3>
80001b50:	010a9a93          	slli	s5,s5,0x10
80001b54:	00050593          	mv	a1,a0
80001b58:	00050c13          	mv	s8,a0
80001b5c:	01099413          	slli	s0,s3,0x10
80001b60:	000b8513          	mv	a0,s7
80001b64:	010ada93          	srli	s5,s5,0x10
80001b68:	009000ef          	jal	ra,80002370 <__mulsi3>
80001b6c:	01546433          	or	s0,s0,s5
80001b70:	00a47e63          	bgeu	s0,a0,80001b8c <__udivdi3+0x41c>
80001b74:	00940433          	add	s0,s0,s1
80001b78:	fffc0793          	addi	a5,s8,-1
80001b7c:	1e946e63          	bltu	s0,s1,80001d78 <__udivdi3+0x608>
80001b80:	1ea47c63          	bgeu	s0,a0,80001d78 <__udivdi3+0x608>
80001b84:	ffec0c13          	addi	s8,s8,-2
80001b88:	00940433          	add	s0,s0,s1
80001b8c:	010a1a13          	slli	s4,s4,0x10
80001b90:	40a40433          	sub	s0,s0,a0
80001b94:	018a6c33          	or	s8,s4,s8
80001b98:	d9dff06f          	j	80001934 <__udivdi3+0x1c4>
80001b9c:	00f65bb3          	srl	s7,a2,a5
80001ba0:	016696b3          	sll	a3,a3,s6
80001ba4:	00dbebb3          	or	s7,s7,a3
80001ba8:	00f454b3          	srl	s1,s0,a5
80001bac:	010bd993          	srli	s3,s7,0x10
80001bb0:	00fa57b3          	srl	a5,s4,a5
80001bb4:	00098593          	mv	a1,s3
80001bb8:	01641433          	sll	s0,s0,s6
80001bbc:	00048513          	mv	a0,s1
80001bc0:	0087e433          	or	s0,a5,s0
80001bc4:	01661ab3          	sll	s5,a2,s6
80001bc8:	01d000ef          	jal	ra,800023e4 <__umodsi3>
80001bcc:	00050913          	mv	s2,a0
80001bd0:	00098593          	mv	a1,s3
80001bd4:	010b9c13          	slli	s8,s7,0x10
80001bd8:	00048513          	mv	a0,s1
80001bdc:	7c0000ef          	jal	ra,8000239c <__udivsi3>
80001be0:	010c5c13          	srli	s8,s8,0x10
80001be4:	00050593          	mv	a1,a0
80001be8:	00050c93          	mv	s9,a0
80001bec:	000c0513          	mv	a0,s8
80001bf0:	780000ef          	jal	ra,80002370 <__mulsi3>
80001bf4:	01091913          	slli	s2,s2,0x10
80001bf8:	01045793          	srli	a5,s0,0x10
80001bfc:	00f967b3          	or	a5,s2,a5
80001c00:	00a7fe63          	bgeu	a5,a0,80001c1c <__udivdi3+0x4ac>
80001c04:	017787b3          	add	a5,a5,s7
80001c08:	fffc8713          	addi	a4,s9,-1
80001c0c:	1777ea63          	bltu	a5,s7,80001d80 <__udivdi3+0x610>
80001c10:	16a7f863          	bgeu	a5,a0,80001d80 <__udivdi3+0x610>
80001c14:	ffec8c93          	addi	s9,s9,-2
80001c18:	017787b3          	add	a5,a5,s7
80001c1c:	40a784b3          	sub	s1,a5,a0
80001c20:	00098593          	mv	a1,s3
80001c24:	00048513          	mv	a0,s1
80001c28:	7bc000ef          	jal	ra,800023e4 <__umodsi3>
80001c2c:	00050913          	mv	s2,a0
80001c30:	00098593          	mv	a1,s3
80001c34:	00048513          	mv	a0,s1
80001c38:	764000ef          	jal	ra,8000239c <__udivsi3>
80001c3c:	01041413          	slli	s0,s0,0x10
80001c40:	00050593          	mv	a1,a0
80001c44:	00050493          	mv	s1,a0
80001c48:	01091913          	slli	s2,s2,0x10
80001c4c:	000c0513          	mv	a0,s8
80001c50:	01045413          	srli	s0,s0,0x10
80001c54:	71c000ef          	jal	ra,80002370 <__mulsi3>
80001c58:	00896433          	or	s0,s2,s0
80001c5c:	00a47e63          	bgeu	s0,a0,80001c78 <__udivdi3+0x508>
80001c60:	01740433          	add	s0,s0,s7
80001c64:	fff48793          	addi	a5,s1,-1
80001c68:	11746463          	bltu	s0,s7,80001d70 <__udivdi3+0x600>
80001c6c:	10a47263          	bgeu	s0,a0,80001d70 <__udivdi3+0x600>
80001c70:	ffe48493          	addi	s1,s1,-2
80001c74:	01740433          	add	s0,s0,s7
80001c78:	00010e37          	lui	t3,0x10
80001c7c:	010c9c93          	slli	s9,s9,0x10
80001c80:	009cecb3          	or	s9,s9,s1
80001c84:	fffe0713          	addi	a4,t3,-1 # ffff <_tbss_end+0xffff>
80001c88:	00ecf833          	and	a6,s9,a4
80001c8c:	00eaf733          	and	a4,s5,a4
80001c90:	40a40433          	sub	s0,s0,a0
80001c94:	010cd893          	srli	a7,s9,0x10
80001c98:	010ada93          	srli	s5,s5,0x10
80001c9c:	00080513          	mv	a0,a6
80001ca0:	00070593          	mv	a1,a4
80001ca4:	6cc000ef          	jal	ra,80002370 <__mulsi3>
80001ca8:	00050313          	mv	t1,a0
80001cac:	000a8593          	mv	a1,s5
80001cb0:	00080513          	mv	a0,a6
80001cb4:	6bc000ef          	jal	ra,80002370 <__mulsi3>
80001cb8:	00050813          	mv	a6,a0
80001cbc:	00070593          	mv	a1,a4
80001cc0:	00088513          	mv	a0,a7
80001cc4:	6ac000ef          	jal	ra,80002370 <__mulsi3>
80001cc8:	00050713          	mv	a4,a0
80001ccc:	000a8593          	mv	a1,s5
80001cd0:	00088513          	mv	a0,a7
80001cd4:	69c000ef          	jal	ra,80002370 <__mulsi3>
80001cd8:	01035793          	srli	a5,t1,0x10
80001cdc:	00e80833          	add	a6,a6,a4
80001ce0:	010787b3          	add	a5,a5,a6
80001ce4:	00e7f463          	bgeu	a5,a4,80001cec <__udivdi3+0x57c>
80001ce8:	01c50533          	add	a0,a0,t3
80001cec:	0107d713          	srli	a4,a5,0x10
80001cf0:	00a70533          	add	a0,a4,a0
80001cf4:	02a46a63          	bltu	s0,a0,80001d28 <__udivdi3+0x5b8>
80001cf8:	00a40863          	beq	s0,a0,80001d08 <__udivdi3+0x598>
80001cfc:	000c8513          	mv	a0,s9
80001d00:	00000c13          	li	s8,0
80001d04:	d39ff06f          	j	80001a3c <__udivdi3+0x2cc>
80001d08:	00010737          	lui	a4,0x10
80001d0c:	fff70713          	addi	a4,a4,-1 # ffff <_tbss_end+0xffff>
80001d10:	00e7f7b3          	and	a5,a5,a4
80001d14:	01079793          	slli	a5,a5,0x10
80001d18:	00e37333          	and	t1,t1,a4
80001d1c:	016a1633          	sll	a2,s4,s6
80001d20:	006787b3          	add	a5,a5,t1
80001d24:	fcf67ce3          	bgeu	a2,a5,80001cfc <__udivdi3+0x58c>
80001d28:	fffc8513          	addi	a0,s9,-1
80001d2c:	00000c13          	li	s8,0
80001d30:	d0dff06f          	j	80001a3c <__udivdi3+0x2cc>
80001d34:	0106d793          	srli	a5,a3,0x10
80001d38:	01000593          	li	a1,16
80001d3c:	cc5ff06f          	j	80001a00 <__udivdi3+0x290>
80001d40:	01065713          	srli	a4,a2,0x10
80001d44:	01000993          	li	s3,16
80001d48:	a91ff06f          	j	800017d8 <__udivdi3+0x68>
80001d4c:	0104d713          	srli	a4,s1,0x10
80001d50:	01000993          	li	s3,16
80001d54:	badff06f          	j	80001900 <__udivdi3+0x190>
80001d58:	00000c13          	li	s8,0
80001d5c:	00100513          	li	a0,1
80001d60:	cddff06f          	j	80001a3c <__udivdi3+0x2cc>
80001d64:	00068793          	mv	a5,a3
80001d68:	00000593          	li	a1,0
80001d6c:	c95ff06f          	j	80001a00 <__udivdi3+0x290>
80001d70:	00078493          	mv	s1,a5
80001d74:	f05ff06f          	j	80001c78 <__udivdi3+0x508>
80001d78:	00078c13          	mv	s8,a5
80001d7c:	e11ff06f          	j	80001b8c <__udivdi3+0x41c>
80001d80:	00070c93          	mv	s9,a4
80001d84:	e99ff06f          	j	80001c1c <__udivdi3+0x4ac>
80001d88:	00070a13          	mv	s4,a4
80001d8c:	da5ff06f          	j	80001b30 <__udivdi3+0x3c0>
80001d90:	ffe40413          	addi	s0,s0,-2
80001d94:	009787b3          	add	a5,a5,s1
80001d98:	ad1ff06f          	j	80001868 <__udivdi3+0xf8>
80001d9c:	ffe40413          	addi	s0,s0,-2
80001da0:	009787b3          	add	a5,a5,s1
80001da4:	bddff06f          	j	80001980 <__udivdi3+0x210>

80001da8 <__umoddi3>:
80001da8:	fd010113          	addi	sp,sp,-48
80001dac:	02812423          	sw	s0,40(sp)
80001db0:	02912223          	sw	s1,36(sp)
80001db4:	02112623          	sw	ra,44(sp)
80001db8:	03212023          	sw	s2,32(sp)
80001dbc:	01312e23          	sw	s3,28(sp)
80001dc0:	01412c23          	sw	s4,24(sp)
80001dc4:	01512a23          	sw	s5,20(sp)
80001dc8:	01612823          	sw	s6,16(sp)
80001dcc:	01712623          	sw	s7,12(sp)
80001dd0:	01812423          	sw	s8,8(sp)
80001dd4:	01912223          	sw	s9,4(sp)
80001dd8:	01a12023          	sw	s10,0(sp)
80001ddc:	00058493          	mv	s1,a1
80001de0:	00050413          	mv	s0,a0
80001de4:	22069663          	bnez	a3,80002010 <__umoddi3+0x268>
80001de8:	00068913          	mv	s2,a3
80001dec:	00060b13          	mv	s6,a2
80001df0:	00050993          	mv	s3,a0
80001df4:	12c5fe63          	bgeu	a1,a2,80001f30 <__umoddi3+0x188>
80001df8:	000107b7          	lui	a5,0x10
80001dfc:	00058a93          	mv	s5,a1
80001e00:	28f67a63          	bgeu	a2,a5,80002094 <__umoddi3+0x2ec>
80001e04:	0ff00793          	li	a5,255
80001e08:	00060713          	mv	a4,a2
80001e0c:	00c7f663          	bgeu	a5,a2,80001e18 <__umoddi3+0x70>
80001e10:	00865713          	srli	a4,a2,0x8
80001e14:	00800913          	li	s2,8
80001e18:	00001797          	auipc	a5,0x1
80001e1c:	7b47a783          	lw	a5,1972(a5) # 800035cc <_GLOBAL_OFFSET_TABLE_+0x4>
80001e20:	00e787b3          	add	a5,a5,a4
80001e24:	0007c783          	lbu	a5,0(a5)
80001e28:	02000513          	li	a0,32
80001e2c:	012787b3          	add	a5,a5,s2
80001e30:	40f50933          	sub	s2,a0,a5
80001e34:	00090c63          	beqz	s2,80001e4c <__umoddi3+0xa4>
80001e38:	012494b3          	sll	s1,s1,s2
80001e3c:	00f45ab3          	srl	s5,s0,a5
80001e40:	01261b33          	sll	s6,a2,s2
80001e44:	009aeab3          	or	s5,s5,s1
80001e48:	012419b3          	sll	s3,s0,s2
80001e4c:	010b5b93          	srli	s7,s6,0x10
80001e50:	000b8593          	mv	a1,s7
80001e54:	000a8513          	mv	a0,s5
80001e58:	58c000ef          	jal	ra,800023e4 <__umodsi3>
80001e5c:	00050a13          	mv	s4,a0
80001e60:	000b8593          	mv	a1,s7
80001e64:	000a8513          	mv	a0,s5
80001e68:	010b1a93          	slli	s5,s6,0x10
80001e6c:	530000ef          	jal	ra,8000239c <__udivsi3>
80001e70:	010ada93          	srli	s5,s5,0x10
80001e74:	00050593          	mv	a1,a0
80001e78:	000a8513          	mv	a0,s5
80001e7c:	4f4000ef          	jal	ra,80002370 <__mulsi3>
80001e80:	010a1a13          	slli	s4,s4,0x10
80001e84:	0109d793          	srli	a5,s3,0x10
80001e88:	00fa67b3          	or	a5,s4,a5
80001e8c:	00a7f863          	bgeu	a5,a0,80001e9c <__umoddi3+0xf4>
80001e90:	016787b3          	add	a5,a5,s6
80001e94:	0167e463          	bltu	a5,s6,80001e9c <__umoddi3+0xf4>
80001e98:	4ca7e863          	bltu	a5,a0,80002368 <__umoddi3+0x5c0>
80001e9c:	40a78433          	sub	s0,a5,a0
80001ea0:	000b8593          	mv	a1,s7
80001ea4:	00040513          	mv	a0,s0
80001ea8:	53c000ef          	jal	ra,800023e4 <__umodsi3>
80001eac:	00050493          	mv	s1,a0
80001eb0:	000b8593          	mv	a1,s7
80001eb4:	00040513          	mv	a0,s0
80001eb8:	4e4000ef          	jal	ra,8000239c <__udivsi3>
80001ebc:	00050593          	mv	a1,a0
80001ec0:	000a8513          	mv	a0,s5
80001ec4:	4ac000ef          	jal	ra,80002370 <__mulsi3>
80001ec8:	01099793          	slli	a5,s3,0x10
80001ecc:	01049493          	slli	s1,s1,0x10
80001ed0:	0107d793          	srli	a5,a5,0x10
80001ed4:	00f4e7b3          	or	a5,s1,a5
80001ed8:	00a7fa63          	bgeu	a5,a0,80001eec <__umoddi3+0x144>
80001edc:	016787b3          	add	a5,a5,s6
80001ee0:	0167e663          	bltu	a5,s6,80001eec <__umoddi3+0x144>
80001ee4:	00a7f463          	bgeu	a5,a0,80001eec <__umoddi3+0x144>
80001ee8:	016787b3          	add	a5,a5,s6
80001eec:	40a78533          	sub	a0,a5,a0
80001ef0:	01255533          	srl	a0,a0,s2
80001ef4:	00000593          	li	a1,0
80001ef8:	02c12083          	lw	ra,44(sp)
80001efc:	02812403          	lw	s0,40(sp)
80001f00:	02412483          	lw	s1,36(sp)
80001f04:	02012903          	lw	s2,32(sp)
80001f08:	01c12983          	lw	s3,28(sp)
80001f0c:	01812a03          	lw	s4,24(sp)
80001f10:	01412a83          	lw	s5,20(sp)
80001f14:	01012b03          	lw	s6,16(sp)
80001f18:	00c12b83          	lw	s7,12(sp)
80001f1c:	00812c03          	lw	s8,8(sp)
80001f20:	00412c83          	lw	s9,4(sp)
80001f24:	00012d03          	lw	s10,0(sp)
80001f28:	03010113          	addi	sp,sp,48
80001f2c:	00008067          	ret
80001f30:	00061a63          	bnez	a2,80001f44 <__umoddi3+0x19c>
80001f34:	00000593          	li	a1,0
80001f38:	00100513          	li	a0,1
80001f3c:	460000ef          	jal	ra,8000239c <__udivsi3>
80001f40:	00050b13          	mv	s6,a0
80001f44:	000107b7          	lui	a5,0x10
80001f48:	12fb6a63          	bltu	s6,a5,8000207c <__umoddi3+0x2d4>
80001f4c:	010007b7          	lui	a5,0x1000
80001f50:	3cfb6c63          	bltu	s6,a5,80002328 <__umoddi3+0x580>
80001f54:	018b5713          	srli	a4,s6,0x18
80001f58:	01800913          	li	s2,24
80001f5c:	00001797          	auipc	a5,0x1
80001f60:	6707a783          	lw	a5,1648(a5) # 800035cc <_GLOBAL_OFFSET_TABLE_+0x4>
80001f64:	00e787b3          	add	a5,a5,a4
80001f68:	0007c783          	lbu	a5,0(a5)
80001f6c:	02000513          	li	a0,32
80001f70:	012787b3          	add	a5,a5,s2
80001f74:	40f50933          	sub	s2,a0,a5
80001f78:	12091863          	bnez	s2,800020a8 <__umoddi3+0x300>
80001f7c:	010b1b93          	slli	s7,s6,0x10
80001f80:	416484b3          	sub	s1,s1,s6
80001f84:	010b5a93          	srli	s5,s6,0x10
80001f88:	010bdb93          	srli	s7,s7,0x10
80001f8c:	000a8593          	mv	a1,s5
80001f90:	00048513          	mv	a0,s1
80001f94:	450000ef          	jal	ra,800023e4 <__umodsi3>
80001f98:	00050a13          	mv	s4,a0
80001f9c:	000a8593          	mv	a1,s5
80001fa0:	00048513          	mv	a0,s1
80001fa4:	3f8000ef          	jal	ra,8000239c <__udivsi3>
80001fa8:	000b8593          	mv	a1,s7
80001fac:	3c4000ef          	jal	ra,80002370 <__mulsi3>
80001fb0:	010a1a13          	slli	s4,s4,0x10
80001fb4:	0109d793          	srli	a5,s3,0x10
80001fb8:	00fa67b3          	or	a5,s4,a5
80001fbc:	00a7fa63          	bgeu	a5,a0,80001fd0 <__umoddi3+0x228>
80001fc0:	016787b3          	add	a5,a5,s6
80001fc4:	0167e663          	bltu	a5,s6,80001fd0 <__umoddi3+0x228>
80001fc8:	00a7f463          	bgeu	a5,a0,80001fd0 <__umoddi3+0x228>
80001fcc:	016787b3          	add	a5,a5,s6
80001fd0:	40a78433          	sub	s0,a5,a0
80001fd4:	000a8593          	mv	a1,s5
80001fd8:	00040513          	mv	a0,s0
80001fdc:	408000ef          	jal	ra,800023e4 <__umodsi3>
80001fe0:	00050493          	mv	s1,a0
80001fe4:	000a8593          	mv	a1,s5
80001fe8:	00040513          	mv	a0,s0
80001fec:	3b0000ef          	jal	ra,8000239c <__udivsi3>
80001ff0:	000b8593          	mv	a1,s7
80001ff4:	01099993          	slli	s3,s3,0x10
80001ff8:	378000ef          	jal	ra,80002370 <__mulsi3>
80001ffc:	01049493          	slli	s1,s1,0x10
80002000:	0109d993          	srli	s3,s3,0x10
80002004:	0134e7b3          	or	a5,s1,s3
80002008:	eea7f2e3          	bgeu	a5,a0,80001eec <__umoddi3+0x144>
8000200c:	ed1ff06f          	j	80001edc <__umoddi3+0x134>
80002010:	eed5e4e3          	bltu	a1,a3,80001ef8 <__umoddi3+0x150>
80002014:	000107b7          	lui	a5,0x10
80002018:	04f6e863          	bltu	a3,a5,80002068 <__umoddi3+0x2c0>
8000201c:	010007b7          	lui	a5,0x1000
80002020:	30f6ea63          	bltu	a3,a5,80002334 <__umoddi3+0x58c>
80002024:	0186d813          	srli	a6,a3,0x18
80002028:	01800713          	li	a4,24
8000202c:	00001797          	auipc	a5,0x1
80002030:	5a07a783          	lw	a5,1440(a5) # 800035cc <_GLOBAL_OFFSET_TABLE_+0x4>
80002034:	010787b3          	add	a5,a5,a6
80002038:	0007ca83          	lbu	s5,0(a5)
8000203c:	02000a13          	li	s4,32
80002040:	00ea8ab3          	add	s5,s5,a4
80002044:	415a0a33          	sub	s4,s4,s5
80002048:	120a1263          	bnez	s4,8000216c <__umoddi3+0x3c4>
8000204c:	0096e463          	bltu	a3,s1,80002054 <__umoddi3+0x2ac>
80002050:	eac464e3          	bltu	s0,a2,80001ef8 <__umoddi3+0x150>
80002054:	40c40533          	sub	a0,s0,a2
80002058:	40d486b3          	sub	a3,s1,a3
8000205c:	00a435b3          	sltu	a1,s0,a0
80002060:	40b685b3          	sub	a1,a3,a1
80002064:	e95ff06f          	j	80001ef8 <__umoddi3+0x150>
80002068:	0ff00793          	li	a5,255
8000206c:	2ed7f063          	bgeu	a5,a3,8000234c <__umoddi3+0x5a4>
80002070:	0086d813          	srli	a6,a3,0x8
80002074:	00800713          	li	a4,8
80002078:	fb5ff06f          	j	8000202c <__umoddi3+0x284>
8000207c:	0ff00793          	li	a5,255
80002080:	000b0713          	mv	a4,s6
80002084:	ed67fce3          	bgeu	a5,s6,80001f5c <__umoddi3+0x1b4>
80002088:	008b5713          	srli	a4,s6,0x8
8000208c:	00800913          	li	s2,8
80002090:	ecdff06f          	j	80001f5c <__umoddi3+0x1b4>
80002094:	010007b7          	lui	a5,0x1000
80002098:	2af66463          	bltu	a2,a5,80002340 <__umoddi3+0x598>
8000209c:	01865713          	srli	a4,a2,0x18
800020a0:	01800913          	li	s2,24
800020a4:	d75ff06f          	j	80001e18 <__umoddi3+0x70>
800020a8:	012b1b33          	sll	s6,s6,s2
800020ac:	00f4dc33          	srl	s8,s1,a5
800020b0:	010b5a93          	srli	s5,s6,0x10
800020b4:	00f457b3          	srl	a5,s0,a5
800020b8:	000a8593          	mv	a1,s5
800020bc:	012494b3          	sll	s1,s1,s2
800020c0:	000c0513          	mv	a0,s8
800020c4:	0097ea33          	or	s4,a5,s1
800020c8:	31c000ef          	jal	ra,800023e4 <__umodsi3>
800020cc:	00050993          	mv	s3,a0
800020d0:	000a8593          	mv	a1,s5
800020d4:	010b1b93          	slli	s7,s6,0x10
800020d8:	000c0513          	mv	a0,s8
800020dc:	2c0000ef          	jal	ra,8000239c <__udivsi3>
800020e0:	010bdb93          	srli	s7,s7,0x10
800020e4:	00050593          	mv	a1,a0
800020e8:	000b8513          	mv	a0,s7
800020ec:	284000ef          	jal	ra,80002370 <__mulsi3>
800020f0:	01099993          	slli	s3,s3,0x10
800020f4:	010a5793          	srli	a5,s4,0x10
800020f8:	00f9e7b3          	or	a5,s3,a5
800020fc:	012419b3          	sll	s3,s0,s2
80002100:	00a7fa63          	bgeu	a5,a0,80002114 <__umoddi3+0x36c>
80002104:	016787b3          	add	a5,a5,s6
80002108:	0167e663          	bltu	a5,s6,80002114 <__umoddi3+0x36c>
8000210c:	00a7f463          	bgeu	a5,a0,80002114 <__umoddi3+0x36c>
80002110:	016787b3          	add	a5,a5,s6
80002114:	40a784b3          	sub	s1,a5,a0
80002118:	000a8593          	mv	a1,s5
8000211c:	00048513          	mv	a0,s1
80002120:	2c4000ef          	jal	ra,800023e4 <__umodsi3>
80002124:	00050413          	mv	s0,a0
80002128:	000a8593          	mv	a1,s5
8000212c:	00048513          	mv	a0,s1
80002130:	26c000ef          	jal	ra,8000239c <__udivsi3>
80002134:	010a1a13          	slli	s4,s4,0x10
80002138:	00050593          	mv	a1,a0
8000213c:	01041493          	slli	s1,s0,0x10
80002140:	000b8513          	mv	a0,s7
80002144:	010a5a13          	srli	s4,s4,0x10
80002148:	228000ef          	jal	ra,80002370 <__mulsi3>
8000214c:	0144e4b3          	or	s1,s1,s4
80002150:	00a4fa63          	bgeu	s1,a0,80002164 <__umoddi3+0x3bc>
80002154:	016484b3          	add	s1,s1,s6
80002158:	0164e663          	bltu	s1,s6,80002164 <__umoddi3+0x3bc>
8000215c:	00a4f463          	bgeu	s1,a0,80002164 <__umoddi3+0x3bc>
80002160:	016484b3          	add	s1,s1,s6
80002164:	40a484b3          	sub	s1,s1,a0
80002168:	e25ff06f          	j	80001f8c <__umoddi3+0x1e4>
8000216c:	015657b3          	srl	a5,a2,s5
80002170:	014696b3          	sll	a3,a3,s4
80002174:	00d7ec33          	or	s8,a5,a3
80002178:	0154d9b3          	srl	s3,s1,s5
8000217c:	010c5c93          	srli	s9,s8,0x10
80002180:	015457b3          	srl	a5,s0,s5
80002184:	000c8593          	mv	a1,s9
80002188:	00098513          	mv	a0,s3
8000218c:	014494b3          	sll	s1,s1,s4
80002190:	0097e4b3          	or	s1,a5,s1
80002194:	01461933          	sll	s2,a2,s4
80002198:	24c000ef          	jal	ra,800023e4 <__umodsi3>
8000219c:	00050b93          	mv	s7,a0
800021a0:	000c8593          	mv	a1,s9
800021a4:	00098513          	mv	a0,s3
800021a8:	010c1d13          	slli	s10,s8,0x10
800021ac:	1f0000ef          	jal	ra,8000239c <__udivsi3>
800021b0:	010d5d13          	srli	s10,s10,0x10
800021b4:	00050593          	mv	a1,a0
800021b8:	00050993          	mv	s3,a0
800021bc:	000d0513          	mv	a0,s10
800021c0:	1b0000ef          	jal	ra,80002370 <__mulsi3>
800021c4:	010b9b93          	slli	s7,s7,0x10
800021c8:	0104d713          	srli	a4,s1,0x10
800021cc:	00ebe733          	or	a4,s7,a4
800021d0:	01441433          	sll	s0,s0,s4
800021d4:	00a77e63          	bgeu	a4,a0,800021f0 <__umoddi3+0x448>
800021d8:	01870733          	add	a4,a4,s8
800021dc:	fff98793          	addi	a5,s3,-1
800021e0:	19876063          	bltu	a4,s8,80002360 <__umoddi3+0x5b8>
800021e4:	16a77e63          	bgeu	a4,a0,80002360 <__umoddi3+0x5b8>
800021e8:	ffe98993          	addi	s3,s3,-2
800021ec:	01870733          	add	a4,a4,s8
800021f0:	40a70b33          	sub	s6,a4,a0
800021f4:	000c8593          	mv	a1,s9
800021f8:	000b0513          	mv	a0,s6
800021fc:	1e8000ef          	jal	ra,800023e4 <__umodsi3>
80002200:	00050b93          	mv	s7,a0
80002204:	000c8593          	mv	a1,s9
80002208:	000b0513          	mv	a0,s6
8000220c:	190000ef          	jal	ra,8000239c <__udivsi3>
80002210:	01049493          	slli	s1,s1,0x10
80002214:	00050593          	mv	a1,a0
80002218:	00050b13          	mv	s6,a0
8000221c:	010b9b93          	slli	s7,s7,0x10
80002220:	000d0513          	mv	a0,s10
80002224:	0104d493          	srli	s1,s1,0x10
80002228:	148000ef          	jal	ra,80002370 <__mulsi3>
8000222c:	009be4b3          	or	s1,s7,s1
80002230:	00a4fe63          	bgeu	s1,a0,8000224c <__umoddi3+0x4a4>
80002234:	018484b3          	add	s1,s1,s8
80002238:	fffb0793          	addi	a5,s6,-1
8000223c:	1184ee63          	bltu	s1,s8,80002358 <__umoddi3+0x5b0>
80002240:	10a4fc63          	bgeu	s1,a0,80002358 <__umoddi3+0x5b0>
80002244:	ffeb0b13          	addi	s6,s6,-2
80002248:	018484b3          	add	s1,s1,s8
8000224c:	00010e37          	lui	t3,0x10
80002250:	01099993          	slli	s3,s3,0x10
80002254:	0169e9b3          	or	s3,s3,s6
80002258:	fffe0713          	addi	a4,t3,-1 # ffff <_tbss_end+0xffff>
8000225c:	00e9f7b3          	and	a5,s3,a4
80002260:	00e97733          	and	a4,s2,a4
80002264:	40a484b3          	sub	s1,s1,a0
80002268:	0109d993          	srli	s3,s3,0x10
8000226c:	01095893          	srli	a7,s2,0x10
80002270:	00078513          	mv	a0,a5
80002274:	00070593          	mv	a1,a4
80002278:	0f8000ef          	jal	ra,80002370 <__mulsi3>
8000227c:	00050813          	mv	a6,a0
80002280:	00088593          	mv	a1,a7
80002284:	00078513          	mv	a0,a5
80002288:	0e8000ef          	jal	ra,80002370 <__mulsi3>
8000228c:	00050313          	mv	t1,a0
80002290:	00070593          	mv	a1,a4
80002294:	00098513          	mv	a0,s3
80002298:	0d8000ef          	jal	ra,80002370 <__mulsi3>
8000229c:	00050713          	mv	a4,a0
800022a0:	00088593          	mv	a1,a7
800022a4:	00098513          	mv	a0,s3
800022a8:	0c8000ef          	jal	ra,80002370 <__mulsi3>
800022ac:	01085793          	srli	a5,a6,0x10
800022b0:	00e30333          	add	t1,t1,a4
800022b4:	006787b3          	add	a5,a5,t1
800022b8:	00e7f463          	bgeu	a5,a4,800022c0 <__umoddi3+0x518>
800022bc:	01c50533          	add	a0,a0,t3
800022c0:	00010737          	lui	a4,0x10
800022c4:	fff70713          	addi	a4,a4,-1 # ffff <_tbss_end+0xffff>
800022c8:	0107d593          	srli	a1,a5,0x10
800022cc:	00e7f7b3          	and	a5,a5,a4
800022d0:	01079793          	slli	a5,a5,0x10
800022d4:	00e87833          	and	a6,a6,a4
800022d8:	00a585b3          	add	a1,a1,a0
800022dc:	010787b3          	add	a5,a5,a6
800022e0:	02b4e863          	bltu	s1,a1,80002310 <__umoddi3+0x568>
800022e4:	02b48463          	beq	s1,a1,8000230c <__umoddi3+0x564>
800022e8:	40f407b3          	sub	a5,s0,a5
800022ec:	00f43433          	sltu	s0,s0,a5
800022f0:	40b485b3          	sub	a1,s1,a1
800022f4:	408585b3          	sub	a1,a1,s0
800022f8:	01559533          	sll	a0,a1,s5
800022fc:	0147d7b3          	srl	a5,a5,s4
80002300:	00f56533          	or	a0,a0,a5
80002304:	0145d5b3          	srl	a1,a1,s4
80002308:	bf1ff06f          	j	80001ef8 <__umoddi3+0x150>
8000230c:	fcf47ee3          	bgeu	s0,a5,800022e8 <__umoddi3+0x540>
80002310:	41278933          	sub	s2,a5,s2
80002314:	0127b7b3          	sltu	a5,a5,s2
80002318:	018787b3          	add	a5,a5,s8
8000231c:	40f585b3          	sub	a1,a1,a5
80002320:	00090793          	mv	a5,s2
80002324:	fc5ff06f          	j	800022e8 <__umoddi3+0x540>
80002328:	010b5713          	srli	a4,s6,0x10
8000232c:	01000913          	li	s2,16
80002330:	c2dff06f          	j	80001f5c <__umoddi3+0x1b4>
80002334:	0106d813          	srli	a6,a3,0x10
80002338:	01000713          	li	a4,16
8000233c:	cf1ff06f          	j	8000202c <__umoddi3+0x284>
80002340:	01065713          	srli	a4,a2,0x10
80002344:	01000913          	li	s2,16
80002348:	ad1ff06f          	j	80001e18 <__umoddi3+0x70>
8000234c:	00068813          	mv	a6,a3
80002350:	00000713          	li	a4,0
80002354:	cd9ff06f          	j	8000202c <__umoddi3+0x284>
80002358:	00078b13          	mv	s6,a5
8000235c:	ef1ff06f          	j	8000224c <__umoddi3+0x4a4>
80002360:	00078993          	mv	s3,a5
80002364:	e8dff06f          	j	800021f0 <__umoddi3+0x448>
80002368:	016787b3          	add	a5,a5,s6
8000236c:	b31ff06f          	j	80001e9c <__umoddi3+0xf4>

80002370 <__mulsi3>:
80002370:	00050613          	mv	a2,a0
80002374:	00000513          	li	a0,0
80002378:	0015f693          	andi	a3,a1,1
8000237c:	00068463          	beqz	a3,80002384 <__mulsi3+0x14>
80002380:	00c50533          	add	a0,a0,a2
80002384:	0015d593          	srli	a1,a1,0x1
80002388:	00161613          	slli	a2,a2,0x1
8000238c:	fe0596e3          	bnez	a1,80002378 <__mulsi3+0x8>
80002390:	00008067          	ret

80002394 <__divsi3>:
80002394:	06054063          	bltz	a0,800023f4 <__umodsi3+0x10>
80002398:	0605c663          	bltz	a1,80002404 <__umodsi3+0x20>

8000239c <__udivsi3>:
8000239c:	00058613          	mv	a2,a1
800023a0:	00050593          	mv	a1,a0
800023a4:	fff00513          	li	a0,-1
800023a8:	02060c63          	beqz	a2,800023e0 <__udivsi3+0x44>
800023ac:	00100693          	li	a3,1
800023b0:	00b67a63          	bgeu	a2,a1,800023c4 <__udivsi3+0x28>
800023b4:	00c05863          	blez	a2,800023c4 <__udivsi3+0x28>
800023b8:	00161613          	slli	a2,a2,0x1
800023bc:	00169693          	slli	a3,a3,0x1
800023c0:	feb66ae3          	bltu	a2,a1,800023b4 <__udivsi3+0x18>
800023c4:	00000513          	li	a0,0
800023c8:	00c5e663          	bltu	a1,a2,800023d4 <__udivsi3+0x38>
800023cc:	40c585b3          	sub	a1,a1,a2
800023d0:	00d56533          	or	a0,a0,a3
800023d4:	0016d693          	srli	a3,a3,0x1
800023d8:	00165613          	srli	a2,a2,0x1
800023dc:	fe0696e3          	bnez	a3,800023c8 <__udivsi3+0x2c>
800023e0:	00008067          	ret

800023e4 <__umodsi3>:
800023e4:	00008293          	mv	t0,ra
800023e8:	fb5ff0ef          	jal	ra,8000239c <__udivsi3>
800023ec:	00058513          	mv	a0,a1
800023f0:	00028067          	jr	t0
800023f4:	40a00533          	neg	a0,a0
800023f8:	0005d863          	bgez	a1,80002408 <__umodsi3+0x24>
800023fc:	40b005b3          	neg	a1,a1
80002400:	f9dff06f          	j	8000239c <__udivsi3>
80002404:	40b005b3          	neg	a1,a1
80002408:	00008293          	mv	t0,ra
8000240c:	f91ff0ef          	jal	ra,8000239c <__udivsi3>
80002410:	40a00533          	neg	a0,a0
80002414:	00028067          	jr	t0

80002418 <__modsi3>:
80002418:	00008293          	mv	t0,ra
8000241c:	0005ca63          	bltz	a1,80002430 <__modsi3+0x18>
80002420:	00054c63          	bltz	a0,80002438 <__modsi3+0x20>
80002424:	f79ff0ef          	jal	ra,8000239c <__udivsi3>
80002428:	00058513          	mv	a0,a1
8000242c:	00028067          	jr	t0
80002430:	40b005b3          	neg	a1,a1
80002434:	fe0558e3          	bgez	a0,80002424 <__modsi3+0xc>
80002438:	40a00533          	neg	a0,a0
8000243c:	f61ff0ef          	jal	ra,8000239c <__udivsi3>
80002440:	40b00533          	neg	a0,a1
80002444:	00028067          	jr	t0

80002448 <main>:
80002448:	9b010113          	addi	sp,sp,-1616
8000244c:	00000597          	auipc	a1,0x0
80002450:	49c58593          	addi	a1,a1,1180 # 800028e8 <input_data>
80002454:	00010613          	mv	a2,sp
80002458:	19000513          	li	a0,400
8000245c:	64112623          	sw	ra,1612(sp)
80002460:	da1fd0ef          	jal	ra,80000200 <median>
80002464:	00100513          	li	a0,1
80002468:	d04fe0ef          	jal	ra,8000096c <setStats>
8000246c:	00010613          	mv	a2,sp
80002470:	00000597          	auipc	a1,0x0
80002474:	47858593          	addi	a1,a1,1144 # 800028e8 <input_data>
80002478:	19000513          	li	a0,400
8000247c:	d85fd0ef          	jal	ra,80000200 <median>
80002480:	00000513          	li	a0,0
80002484:	ce8fe0ef          	jal	ra,8000096c <setStats>
80002488:	00010793          	mv	a5,sp
8000248c:	00001717          	auipc	a4,0x1
80002490:	a9c70713          	addi	a4,a4,-1380 # 80002f28 <verify_data>
80002494:	00000513          	li	a0,0
80002498:	19000693          	li	a3,400
8000249c:	0007a883          	lw	a7,0(a5) # 1000000 <_tbss_end+0x1000000>
800024a0:	00072803          	lw	a6,0(a4)
800024a4:	0047a583          	lw	a1,4(a5)
800024a8:	00472603          	lw	a2,4(a4)
800024ac:	03089463          	bne	a7,a6,800024d4 <main+0x8c>
800024b0:	00250513          	addi	a0,a0,2
800024b4:	00c59a63          	bne	a1,a2,800024c8 <main+0x80>
800024b8:	00878793          	addi	a5,a5,8
800024bc:	00870713          	addi	a4,a4,8
800024c0:	fcd51ee3          	bne	a0,a3,8000249c <main+0x54>
800024c4:	00000513          	li	a0,0
800024c8:	64c12083          	lw	ra,1612(sp)
800024cc:	65010113          	addi	sp,sp,1616
800024d0:	00008067          	ret
800024d4:	00150513          	addi	a0,a0,1
800024d8:	ff1ff06f          	j	800024c8 <main+0x80>
800024dc:	ff010113          	addi	sp,sp,-16
800024e0:	00812423          	sw	s0,8(sp)
800024e4:	00912223          	sw	s1,4(sp)
800024e8:	00112623          	sw	ra,12(sp)
800024ec:	06d00493          	li	s1,109
800024f0:	04900513          	li	a0,73
800024f4:	00000417          	auipc	s0,0x0
800024f8:	2a040413          	addi	s0,s0,672 # 80002794 <__clz_tab+0x110>
800024fc:	00c0006f          	j	80002508 <main+0xc0>
80002500:	00048513          	mv	a0,s1
80002504:	00144483          	lbu	s1,1(s0)
80002508:	00140413          	addi	s0,s0,1
8000250c:	d61fd0ef          	jal	ra,8000026c <putchar>
80002510:	fe0498e3          	bnez	s1,80002500 <main+0xb8>
80002514:	00c12083          	lw	ra,12(sp)
80002518:	00812403          	lw	s0,8(sp)
8000251c:	00412483          	lw	s1,4(sp)
80002520:	fff00513          	li	a0,-1
80002524:	01010113          	addi	sp,sp,16
80002528:	00008067          	ret

Disassembly of section .data:

800028e8 <input_data>:
800028e8:	0029                	c.nop	10
800028ea:	0000                	unimp
800028ec:	01c6                	slli	gp,gp,0x11
800028ee:	0000                	unimp
800028f0:	0341                	addi	t1,t1,16
800028f2:	0000                	unimp
800028f4:	0000014f          	fnmadd.s	ft2,ft0,ft0,ft0,rne
800028f8:	0234                	addi	a3,sp,264
800028fa:	0000                	unimp
800028fc:	0001                	nop
800028fe:	0000                	unimp
80002900:	000000bb          	0xbb
80002904:	03dd                	addi	t2,t2,23
80002906:	0000                	unimp
80002908:	02ed                	addi	t0,t0,27
8000290a:	0000                	unimp
8000290c:	016d                	addi	sp,sp,27
8000290e:	0000                	unimp
80002910:	015e                	slli	sp,sp,0x17
80002912:	0000                	unimp
80002914:	023c                	addi	a5,sp,264
80002916:	0000                	unimp
80002918:	0084                	addi	s1,sp,64
8000291a:	0000                	unimp
8000291c:	0040                	addi	s0,sp,4
8000291e:	0000                	unimp
80002920:	03b5                	addi	t2,t2,13
80002922:	0000                	unimp
80002924:	0099                	addi	ra,ra,6
80002926:	0000                	unimp
80002928:	0248                	addi	a0,sp,260
8000292a:	0000                	unimp
8000292c:	00d8                	addi	a4,sp,68
8000292e:	0000                	unimp
80002930:	0325                	addi	t1,t1,9
80002932:	0000                	unimp
80002934:	008c                	addi	a1,sp,64
80002936:	0000                	unimp
80002938:	026d                	addi	tp,tp,27
8000293a:	0000                	unimp
8000293c:	00d2                	slli	ra,ra,0x14
8000293e:	0000                	unimp
80002940:	0006                	c.slli	zero,0x1
80002942:	0000                	unimp
80002944:	023c                	addi	a5,sp,264
80002946:	0000                	unimp
80002948:	000003a3          	sb	zero,7(zero) # 7 <_tbss_end+0x7>
8000294c:	00000153          	fadd.s	ft2,ft0,ft0,rne
80002950:	037a                	slli	t1,t1,0x1e
80002952:	0000                	unimp
80002954:	0251                	addi	tp,tp,20
80002956:	0000                	unimp
80002958:	0188                	addi	a0,sp,192
8000295a:	0000                	unimp
8000295c:	0382                	c.slli64	t2
8000295e:	0000                	unimp
80002960:	02b6                	slli	t0,t0,0xd
80002962:	0000                	unimp
80002964:	00e4                	addi	s1,sp,76
80002966:	0000                	unimp
80002968:	03c1                	addi	t2,t2,16
8000296a:	0000                	unimp
8000296c:	000c                	0xc
8000296e:	0000                	unimp
80002970:	006e                	c.slli	zero,0x1b
80002972:	0000                	unimp
80002974:	00000373          	0x373
80002978:	0074                	addi	a3,sp,12
8000297a:	0000                	unimp
8000297c:	02ee                	slli	t0,t0,0x1b
8000297e:	0000                	unimp
80002980:	0128                	addi	a0,sp,136
80002982:	0000                	unimp
80002984:	0286                	slli	t0,t0,0x1
80002986:	0000                	unimp
80002988:	01aa                	slli	gp,gp,0xa
8000298a:	0000                	unimp
8000298c:	01f4                	addi	a3,sp,204
8000298e:	0000                	unimp
80002990:	013a                	slli	sp,sp,0xe
80002992:	0000                	unimp
80002994:	01b4                	addi	a3,sp,200
80002996:	0000                	unimp
80002998:	00000293          	li	t0,0
8000299c:	02bd                	addi	t0,t0,15
8000299e:	0000                	unimp
800029a0:	0306                	slli	t1,t1,0x1
800029a2:	0000                	unimp
800029a4:	032c                	addi	a1,sp,392
800029a6:	0000                	unimp
800029a8:	0000013f 000003d5 	0x3d50000013f
800029b0:	02a6                	slli	t0,t0,0x9
800029b2:	0000                	unimp
800029b4:	0096                	slli	ra,ra,0x5
800029b6:	0000                	unimp
800029b8:	0000036b          	0x36b
800029bc:	02b8                	addi	a4,sp,328
800029be:	0000                	unimp
800029c0:	0178                	addi	a4,sp,140
800029c2:	0000                	unimp
800029c4:	0234                	addi	a3,sp,264
800029c6:	0000                	unimp
800029c8:	01da                	slli	gp,gp,0x16
800029ca:	0000                	unimp
800029cc:	0110                	addi	a2,sp,128
800029ce:	0000                	unimp
800029d0:	03aa                	slli	t2,t2,0xa
800029d2:	0000                	unimp
800029d4:	0102                	c.slli64	sp
800029d6:	0000                	unimp
800029d8:	0000021b          	0x21b
800029dc:	00000287          	0x287
800029e0:	0239                	addi	tp,tp,14
800029e2:	0000                	unimp
800029e4:	01fd                	addi	gp,gp,31
800029e6:	0000                	unimp
800029e8:	000000cb          	fnmsub.s	ft1,ft0,ft0,ft0,rne
800029ec:	0058                	addi	a4,sp,4
800029ee:	0000                	unimp
800029f0:	0118                	addi	a4,sp,128
800029f2:	0000                	unimp
800029f4:	000002bf 000002f7 	0x2f7000002bf
800029fc:	029d                	addi	t0,t0,7
800029fe:	0000                	unimp
80002a00:	025e                	slli	tp,tp,0x17
80002a02:	0000                	unimp
80002a04:	00000177          	0x177
80002a08:	01ff                	0x1ff
80002a0a:	0000                	unimp
80002a0c:	00000227          	0x227
80002a10:	0291                	addi	t0,t0,4
80002a12:	0000                	unimp
80002a14:	03a8                	addi	a0,sp,456
80002a16:	0000                	unimp
80002a18:	000000c3          	fmadd.s	ft1,ft0,ft0,ft0,rne
80002a1c:	0250                	addi	a2,sp,260
80002a1e:	0000                	unimp
80002a20:	0051                	c.nop	20
80002a22:	0000                	unimp
80002a24:	0239                	addi	tp,tp,14
80002a26:	0000                	unimp
80002a28:	0000010b          	0x10b
80002a2c:	03b8                	addi	a4,sp,456
80002a2e:	0000                	unimp
80002a30:	00e5                	addi	ra,ra,25
80002a32:	0000                	unimp
80002a34:	0320                	addi	s0,sp,392
80002a36:	0000                	unimp
80002a38:	0151                	addi	sp,sp,20
80002a3a:	0000                	unimp
80002a3c:	0248                	addi	a0,sp,260
80002a3e:	0000                	unimp
80002a40:	03b0                	addi	a2,sp,456
80002a42:	0000                	unimp
80002a44:	00000283          	lb	t0,0(zero) # 0 <_tbss_end>
80002a48:	0386                	slli	t2,t2,0x1
80002a4a:	0000                	unimp
80002a4c:	0170                	addi	a2,sp,140
80002a4e:	0000                	unimp
80002a50:	00f1                	addi	ra,ra,28
80002a52:	0000                	unimp
80002a54:	01e9                	addi	gp,gp,26
80002a56:	0000                	unimp
80002a58:	0391                	addi	t2,t2,4
80002a5a:	0000                	unimp
80002a5c:	0148                	addi	a0,sp,132
80002a5e:	0000                	unimp
80002a60:	033a                	slli	t1,t1,0xe
80002a62:	0000                	unimp
80002a64:	0139                	addi	sp,sp,14
80002a66:	0000                	unimp
80002a68:	03a5                	addi	t2,t2,9
80002a6a:	0000                	unimp
80002a6c:	0250                	addi	a2,sp,260
80002a6e:	0000                	unimp
80002a70:	03d9                	addi	t2,t2,22
80002a72:	0000                	unimp
80002a74:	0184                	addi	s1,sp,192
80002a76:	0000                	unimp
80002a78:	000000c3          	fmadd.s	ft1,ft0,ft0,ft0,rne
80002a7c:	021f 0000 03c0      	0x3c00000021f
80002a82:	0000                	unimp
80002a84:	0289                	addi	t0,t0,2
80002a86:	0000                	unimp
80002a88:	0236                	slli	tp,tp,0xd
80002a8a:	0000                	unimp
80002a8c:	000003d3          	fadd.s	ft7,ft0,ft0,rne
80002a90:	015e                	slli	sp,sp,0x17
80002a92:	0000                	unimp
80002a94:	03e5                	addi	t2,t2,25
80002a96:	0000                	unimp
80002a98:	0289                	addi	t0,t0,2
80002a9a:	0000                	unimp
80002a9c:	032e                	slli	t1,t1,0xb
80002a9e:	0000                	unimp
80002aa0:	0291                	addi	t0,t0,4
80002aa2:	0000                	unimp
80002aa4:	0000004f          	fnmadd.s	ft0,ft0,ft0,ft0,rne
80002aa8:	00b5                	addi	ra,ra,13
80002aaa:	0000                	unimp
80002aac:	00d0                	addi	a2,sp,68
80002aae:	0000                	unimp
80002ab0:	0000006f          	j	80002ab0 <input_data+0x1c8>
80002ab4:	03e6                	slli	t2,t2,0x19
80002ab6:	0000                	unimp
80002ab8:	0000035b          	0x35b
80002abc:	0275                	addi	tp,tp,29
80002abe:	0000                	unimp
80002ac0:	0041                	c.nop	16
80002ac2:	0000                	unimp
80002ac4:	0000034f          	fnmadd.s	ft6,ft0,ft0,ft0,rne
80002ac8:	0120                	addi	s0,sp,136
80002aca:	0000                	unimp
80002acc:	02c0                	addi	s0,sp,324
80002ace:	0000                	unimp
80002ad0:	015d                	addi	sp,sp,23
80002ad2:	0000                	unimp
80002ad4:	03e5                	addi	t2,t2,25
80002ad6:	0000                	unimp
80002ad8:	008d                	addi	ra,ra,3
80002ada:	0000                	unimp
80002adc:	00fd                	addi	ra,ra,31
80002ade:	0000                	unimp
80002ae0:	0389                	addi	t2,t2,2
80002ae2:	0000                	unimp
80002ae4:	000002cb          	fnmsub.s	ft5,ft0,ft0,ft0,rne
80002ae8:	0376                	slli	t1,t1,0x1d
80002aea:	0000                	unimp
80002aec:	01ae                	slli	gp,gp,0xb
80002aee:	0000                	unimp
80002af0:	0108                	addi	a0,sp,128
80002af2:	0000                	unimp
80002af4:	019f 0000 0240      	0x2400000019f
80002afa:	0000                	unimp
80002afc:	021a                	slli	tp,tp,0x6
80002afe:	0000                	unimp
80002b00:	000003d3          	fadd.s	ft7,ft0,ft0,rne
80002b04:	02bc                	addi	a5,sp,328
80002b06:	0000                	unimp
80002b08:	02f9                	addi	t0,t0,30
80002b0a:	0000                	unimp
80002b0c:	0004                	0x4
80002b0e:	0000                	unimp
80002b10:	00f1                	addi	ra,ra,28
80002b12:	0000                	unimp
80002b14:	01ee                	slli	gp,gp,0x1b
80002b16:	0000                	unimp
80002b18:	01de                	slli	gp,gp,0x17
80002b1a:	0000                	unimp
80002b1c:	0064                	addi	s1,sp,12
80002b1e:	0000                	unimp
80002b20:	000001f3          	0x1f3
80002b24:	0360                	addi	s0,sp,396
80002b26:	0000                	unimp
80002b28:	00000193          	li	gp,0
80002b2c:	02b5                	addi	t0,t0,13
80002b2e:	0000                	unimp
80002b30:	00de                	slli	ra,ra,0x17
80002b32:	0000                	unimp
80002b34:	01a0                	addi	s0,sp,200
80002b36:	0000                	unimp
80002b38:	01bc                	addi	a5,sp,200
80002b3a:	0000                	unimp
80002b3c:	0128                	addi	a0,sp,136
80002b3e:	0000                	unimp
80002b40:	02d1                	addi	t0,t0,20
80002b42:	0000                	unimp
80002b44:	011d                	addi	sp,sp,7
80002b46:	0000                	unimp
80002b48:	02a4                	addi	s1,sp,328
80002b4a:	0000                	unimp
80002b4c:	026c                	addi	a1,sp,268
80002b4e:	0000                	unimp
80002b50:	013d                	addi	sp,sp,15
80002b52:	0000                	unimp
80002b54:	004e                	c.slli	zero,0x13
80002b56:	0000                	unimp
80002b58:	00e0                	addi	s0,sp,76
80002b5a:	0000                	unimp
80002b5c:	015f 0000 03a9      	0x3a90000015f
80002b62:	0000                	unimp
80002b64:	021c                	addi	a5,sp,256
80002b66:	0000                	unimp
80002b68:	0120                	addi	s0,sp,136
80002b6a:	0000                	unimp
80002b6c:	0286                	slli	t0,t0,0x1
80002b6e:	0000                	unimp
80002b70:	00000077          	0x77
80002b74:	00a9                	addi	ra,ra,10
80002b76:	0000                	unimp
80002b78:	00000267          	jalr	tp,zero # 0 <_tbss_end>
80002b7c:	0000020f          	0x20f
80002b80:	025e                	slli	tp,tp,0x17
80002b82:	0000                	unimp
80002b84:	0121                	addi	sp,sp,8
80002b86:	0000                	unimp
80002b88:	0185                	addi	gp,gp,1
80002b8a:	0000                	unimp
80002b8c:	031c                	addi	a5,sp,384
80002b8e:	0000                	unimp
80002b90:	015f 0000 0321      	0x3210000015f
80002b96:	0000                	unimp
80002b98:	000001c7          	fmsub.s	ft3,ft0,ft0,ft0,rne
80002b9c:	02d0                	addi	a2,sp,324
80002b9e:	0000                	unimp
80002ba0:	0116                	slli	sp,sp,0x5
80002ba2:	0000                	unimp
80002ba4:	02f6                	slli	t0,t0,0x1d
80002ba6:	0000                	unimp
80002ba8:	0000016f          	jal	sp,80002ba8 <input_data+0x2c0>
80002bac:	02e9                	addi	t0,t0,26
80002bae:	0000                	unimp
80002bb0:	0166                	slli	sp,sp,0x19
80002bb2:	0000                	unimp
80002bb4:	005c                	addi	a5,sp,4
80002bb6:	0000                	unimp
80002bb8:	0248                	addi	a0,sp,260
80002bba:	0000                	unimp
80002bbc:	03dd                	addi	t2,t2,23
80002bbe:	0000                	unimp
80002bc0:	003e                	c.slli	zero,0xf
80002bc2:	0000                	unimp
80002bc4:	0000010f          	0x10f
80002bc8:	03d9                	addi	t2,t2,22
80002bca:	0000                	unimp
80002bcc:	0355                	addi	t1,t1,21
80002bce:	0000                	unimp
80002bd0:	00000193          	li	gp,0
80002bd4:	0314                	addi	a3,sp,384
80002bd6:	0000                	unimp
80002bd8:	015a                	slli	sp,sp,0x16
80002bda:	0000                	unimp
80002bdc:	00000213          	li	tp,0
80002be0:	0205                	addi	tp,tp,1
80002be2:	0000                	unimp
80002be4:	00de                	slli	ra,ra,0x17
80002be6:	0000                	unimp
80002be8:	0000022f          	0x22f
80002bec:	01cd                	addi	gp,gp,19
80002bee:	0000                	unimp
80002bf0:	038c                	addi	a1,sp,448
80002bf2:	0000                	unimp
80002bf4:	00f1                	addi	ra,ra,28
80002bf6:	0000                	unimp
80002bf8:	00000307          	0x307
80002bfc:	0166                	slli	sp,sp,0x19
80002bfe:	0000                	unimp
80002c00:	00ff                	0xff
80002c02:	0000                	unimp
80002c04:	014c                	addi	a1,sp,132
80002c06:	0000                	unimp
80002c08:	030a                	slli	t1,t1,0x2
80002c0a:	0000                	unimp
80002c0c:	02ac                	addi	a1,sp,328
80002c0e:	0000                	unimp
80002c10:	0256                	slli	tp,tp,0x15
80002c12:	0000                	unimp
80002c14:	02e4                	addi	s1,sp,332
80002c16:	0000                	unimp
80002c18:	0000008f          	0x8f
80002c1c:	01be                	slli	gp,gp,0xf
80002c1e:	0000                	unimp
80002c20:	0021                	c.nop	8
80002c22:	0000                	unimp
80002c24:	00000137          	lui	sp,0x0
80002c28:	007d                	c.nop	31
80002c2a:	0000                	unimp
80002c2c:	000002e7          	jalr	t0,zero # 0 <_tbss_end>
80002c30:	03ad                	addi	t2,t2,11
80002c32:	0000                	unimp
80002c34:	022d                	addi	tp,tp,11
80002c36:	0000                	unimp
80002c38:	03a5                	addi	t2,t2,9
80002c3a:	0000                	unimp
80002c3c:	01df 0000 031f      	0x31f000001df
80002c42:	0000                	unimp
80002c44:	022d                	addi	tp,tp,11
80002c46:	0000                	unimp
80002c48:	0229                	addi	tp,tp,10
80002c4a:	0000                	unimp
80002c4c:	039d                	addi	t2,t2,7
80002c4e:	0000                	unimp
80002c50:	000001af          	0x1af
80002c54:	031c                	addi	a5,sp,384
80002c56:	0000                	unimp
80002c58:	0288                	addi	a0,sp,320
80002c5a:	0000                	unimp
80002c5c:	0165                	addi	sp,sp,25
80002c5e:	0000                	unimp
80002c60:	03b8                	addi	a4,sp,456
80002c62:	0000                	unimp
80002c64:	0000037b          	0x37b
80002c68:	011f 0000 029a      	0x29a0000011f
80002c6e:	0000                	unimp
80002c70:	00000013          	nop
80002c74:	0202                	c.slli64	tp
80002c76:	0000                	unimp
80002c78:	0031                	c.nop	12
80002c7a:	0000                	unimp
80002c7c:	022d                	addi	tp,tp,11
80002c7e:	0000                	unimp
80002c80:	0056                	c.slli	zero,0x15
80002c82:	0000                	unimp
80002c84:	0366                	slli	t1,t1,0x19
80002c86:	0000                	unimp
80002c88:	005f 0000 0355      	0x3550000005f
80002c8e:	0000                	unimp
80002c90:	01b9                	addi	gp,gp,14
80002c92:	0000                	unimp
80002c94:	01b8                	addi	a4,sp,200
80002c96:	0000                	unimp
80002c98:	0000024b          	fnmsub.s	ft4,ft0,ft0,ft0,rne
80002c9c:	003d                	c.nop	15
80002c9e:	0000                	unimp
80002ca0:	0266                	slli	tp,tp,0x19
80002ca2:	0000                	unimp
80002ca4:	02a6                	slli	t0,t0,0x9
80002ca6:	0000                	unimp
80002ca8:	017e                	slli	sp,sp,0x1f
80002caa:	0000                	unimp
80002cac:	018c                	addi	a1,sp,192
80002cae:	0000                	unimp
80002cb0:	0118                	addi	a4,sp,128
80002cb2:	0000                	unimp
80002cb4:	0009                	c.nop	2
80002cb6:	0000                	unimp
80002cb8:	0328                	addi	a0,sp,392
80002cba:	0000                	unimp
80002cbc:	0011                	c.nop	4
80002cbe:	0000                	unimp
80002cc0:	000003cb          	fnmsub.s	ft7,ft0,ft0,ft0,rne
80002cc4:	00aa                	slli	ra,ra,0xa
80002cc6:	0000                	unimp
80002cc8:	00000333          	add	t1,zero,zero
80002ccc:	00000123          	sb	zero,2(zero) # 2 <_tbss_end+0x2>
80002cd0:	0158                	addi	a4,sp,132
80002cd2:	0000                	unimp
80002cd4:	017c                	addi	a5,sp,140
80002cd6:	0000                	unimp
80002cd8:	01c2                	slli	gp,gp,0x10
80002cda:	0000                	unimp
80002cdc:	0218                	addi	a4,sp,256
80002cde:	0000                	unimp
80002ce0:	0200                	addi	s0,sp,256
80002ce2:	0000                	unimp
80002ce4:	00b9                	addi	ra,ra,14
80002ce6:	0000                	unimp
80002ce8:	03c5                	addi	t2,t2,17
80002cea:	0000                	unimp
80002cec:	0395                	addi	t2,t2,5
80002cee:	0000                	unimp
80002cf0:	0000015b          	0x15b
80002cf4:	0000021b          	0x21b
80002cf8:	0328                	addi	a0,sp,392
80002cfa:	0000                	unimp
80002cfc:	000003d7          	0x3d7
80002d00:	0372                	slli	t1,t1,0x1c
80002d02:	0000                	unimp
80002d04:	00000377          	0x377
80002d08:	0219                	addi	tp,tp,6
80002d0a:	0000                	unimp
80002d0c:	0036                	c.slli	zero,0xd
80002d0e:	0000                	unimp
80002d10:	03b2                	slli	t2,t2,0xc
80002d12:	0000                	unimp
80002d14:	0264                	addi	s1,sp,268
80002d16:	0000                	unimp
80002d18:	02bd                	addi	t0,t0,15
80002d1a:	0000                	unimp
80002d1c:	000003b7          	lui	t2,0x0
80002d20:	0164                	addi	s1,sp,140
80002d22:	0000                	unimp
80002d24:	01df 0000 0237      	0x237000001df
80002d2a:	0000                	unimp
80002d2c:	00000097          	auipc	ra,0x0
80002d30:	0000037b          	0x37b
80002d34:	00000007          	0x7
80002d38:	0016                	c.slli	zero,0x5
80002d3a:	0000                	unimp
80002d3c:	0281                	addi	t0,t0,0
80002d3e:	0000                	unimp
80002d40:	0238                	addi	a4,sp,264
80002d42:	0000                	unimp
80002d44:	0000014f          	fnmadd.s	ft2,ft0,ft0,ft0,rne
80002d48:	0299                	addi	t0,t0,6
80002d4a:	0000                	unimp
80002d4c:	02da                	slli	t0,t0,0x16
80002d4e:	0000                	unimp
80002d50:	000001a7          	0x1a7
80002d54:	005f 0000 01b2      	0x1b20000005f
80002d5a:	0000                	unimp
80002d5c:	02d8                	addi	a4,sp,324
80002d5e:	0000                	unimp
80002d60:	009e                	slli	ra,ra,0x7
80002d62:	0000                	unimp
80002d64:	0118                	addi	a4,sp,128
80002d66:	0000                	unimp
80002d68:	0002                	c.slli64	zero
80002d6a:	0000                	unimp
80002d6c:	0000018b          	0x18b
80002d70:	0054                	addi	a3,sp,4
80002d72:	0000                	unimp
80002d74:	02b0                	addi	a2,sp,328
80002d76:	0000                	unimp
80002d78:	000000f7          	0xf7
80002d7c:	0000038f          	0x38f
80002d80:	0031                	c.nop	12
80002d82:	0000                	unimp
80002d84:	01dc                	addi	a5,sp,196
80002d86:	0000                	unimp
80002d88:	000001b3          	add	gp,zero,zero
80002d8c:	0000032f          	0x32f
80002d90:	0318                	addi	a4,sp,384
80002d92:	0000                	unimp
80002d94:	02d9                	addi	t0,t0,22
80002d96:	0000                	unimp
80002d98:	0365                	addi	t1,t1,25
80002d9a:	0000                	unimp
80002d9c:	0109                	addi	sp,sp,2
80002d9e:	0000                	unimp
80002da0:	01e6                	slli	gp,gp,0x19
80002da2:	0000                	unimp
80002da4:	007f                	0x7f
80002da6:	0000                	unimp
80002da8:	019e                	slli	gp,gp,0x7
80002daa:	0000                	unimp
80002dac:	00ec                	addi	a1,sp,76
80002dae:	0000                	unimp
80002db0:	0171                	addi	sp,sp,28
80002db2:	0000                	unimp
80002db4:	00d6                	slli	ra,ra,0x15
80002db6:	0000                	unimp
80002db8:	0224                	addi	s1,sp,264
80002dba:	0000                	unimp
80002dbc:	00b4                	addi	a3,sp,72
80002dbe:	0000                	unimp
80002dc0:	0206                	slli	tp,tp,0x1
80002dc2:	0000                	unimp
80002dc4:	0006                	c.slli	zero,0x1
80002dc6:	0000                	unimp
80002dc8:	0378                	addi	a4,sp,396
80002dca:	0000                	unimp
80002dcc:	000001f7          	0x1f7
80002dd0:	02aa                	slli	t0,t0,0xa
80002dd2:	0000                	unimp
80002dd4:	0254                	addi	a3,sp,260
80002dd6:	0000                	unimp
80002dd8:	011c                	addi	a5,sp,128
80002dda:	0000                	unimp
80002ddc:	00ad                	addi	ra,ra,11
80002dde:	0000                	unimp
80002de0:	0108                	addi	a0,sp,128
80002de2:	0000                	unimp
80002de4:	00000283          	lb	t0,0(zero) # 0 <_tbss_end>
80002de8:	000001f3          	0x1f3
80002dec:	015a                	slli	sp,sp,0x16
80002dee:	0000                	unimp
80002df0:	0122                	slli	sp,sp,0x8
80002df2:	0000                	unimp
80002df4:	00000257          	0x257
80002df8:	0381                	addi	t2,t2,0
80002dfa:	0000                	unimp
80002dfc:	0044                	addi	s1,sp,4
80002dfe:	0000                	unimp
80002e00:	000000d7          	0xd7
80002e04:	0351                	addi	t1,t1,20
80002e06:	0000                	unimp
80002e08:	000002db          	0x2db
80002e0c:	0292                	slli	t0,t0,0x4
80002e0e:	0000                	unimp
80002e10:	02b0                	addi	a2,sp,328
80002e12:	0000                	unimp
80002e14:	0000026b          	0x26b
80002e18:	000000fb          	0xfb
80002e1c:	0079                	c.nop	30
80002e1e:	0000                	unimp
80002e20:	0312                	slli	t1,t1,0x4
80002e22:	0000                	unimp
80002e24:	00000083          	lb	ra,0(zero) # 0 <_tbss_end>
80002e28:	0000022b          	0x22b
80002e2c:	033c                	addi	a5,sp,392
80002e2e:	0000                	unimp
80002e30:	012e                	slli	sp,sp,0xb
80002e32:	0000                	unimp
80002e34:	0000029b          	0x29b
80002e38:	0210                	addi	a2,sp,256
80002e3a:	0000                	unimp
80002e3c:	01b1                	addi	gp,gp,12
80002e3e:	0000                	unimp
80002e40:	0220                	addi	s0,sp,264
80002e42:	0000                	unimp
80002e44:	000001e7          	jalr	gp,zero # 0 <_tbss_end>
80002e48:	0142                	slli	sp,sp,0x10
80002e4a:	0000                	unimp
80002e4c:	02f1                	addi	t0,t0,28
80002e4e:	0000                	unimp
80002e50:	000003b3          	add	t2,zero,zero
80002e54:	007d                	c.nop	31
80002e56:	0000                	unimp
80002e58:	011f 0000 0272      	0x2720000011f
80002e5e:	0000                	unimp
80002e60:	0338                	addi	a4,sp,392
80002e62:	0000                	unimp
80002e64:	000e                	c.slli	zero,0x3
80002e66:	0000                	unimp
80002e68:	0130                	addi	a2,sp,136
80002e6a:	0000                	unimp
80002e6c:	000a                	c.slli	zero,0x2
80002e6e:	0000                	unimp
80002e70:	0314                	addi	a3,sp,384
80002e72:	0000                	unimp
80002e74:	00000193          	li	gp,0
80002e78:	02dd                	addi	t0,t0,23
80002e7a:	0000                	unimp
80002e7c:	006a                	c.slli	zero,0x1a
80002e7e:	0000                	unimp
80002e80:	000003bf 000002bf 	0x2bf000003bf
80002e88:	016e                	slli	sp,sp,0x1b
80002e8a:	0000                	unimp
80002e8c:	0332                	slli	t1,t1,0xc
80002e8e:	0000                	unimp
80002e90:	02d2                	slli	t0,t0,0x14
80002e92:	0000                	unimp
80002e94:	03c4                	addi	s1,sp,452
80002e96:	0000                	unimp
80002e98:	0126                	slli	sp,sp,0x9
80002e9a:	0000                	unimp
80002e9c:	0196                	slli	gp,gp,0x5
80002e9e:	0000                	unimp
80002ea0:	000003cf          	fnmadd.s	ft7,ft0,ft0,ft0,rne
80002ea4:	036a                	slli	t1,t1,0x1a
80002ea6:	0000                	unimp
80002ea8:	028d                	addi	t0,t0,3
80002eaa:	0000                	unimp
80002eac:	0358                	addi	a4,sp,388
80002eae:	0000                	unimp
80002eb0:	02ec                	addi	a1,sp,332
80002eb2:	0000                	unimp
80002eb4:	0056                	c.slli	zero,0x15
80002eb6:	0000                	unimp
80002eb8:	0000005b          	0x5b
80002ebc:	003c                	addi	a5,sp,8
80002ebe:	0000                	unimp
80002ec0:	017a                	slli	sp,sp,0x1e
80002ec2:	0000                	unimp
80002ec4:	0294                	addi	a3,sp,320
80002ec6:	0000                	unimp
80002ec8:	0069                	c.nop	26
80002eca:	0000                	unimp
80002ecc:	0000029b          	0x29b
80002ed0:	0066                	c.slli	zero,0x19
80002ed2:	0000                	unimp
80002ed4:	0099                	addi	ra,ra,6
80002ed6:	0000                	unimp
80002ed8:	017d                	addi	sp,sp,31
80002eda:	0000                	unimp
80002edc:	0079                	c.nop	30
80002ede:	0000                	unimp
80002ee0:	0000028b          	0x28b
80002ee4:	0062                	c.slli	zero,0x18
80002ee6:	0000                	unimp
80002ee8:	0339                	addi	t1,t1,14
80002eea:	0000                	unimp
80002eec:	019c                	addi	a5,sp,192
80002eee:	0000                	unimp
80002ef0:	0348                	addi	a0,sp,388
80002ef2:	0000                	unimp
80002ef4:	00ec                	addi	a1,sp,76
80002ef6:	0000                	unimp
80002ef8:	0164                	addi	s1,sp,140
80002efa:	0000                	unimp
80002efc:	000c                	0xc
80002efe:	0000                	unimp
80002f00:	0094                	addi	a3,sp,64
80002f02:	0000                	unimp
80002f04:	000001a7          	0x1a7
80002f08:	0036                	c.slli	zero,0xd
80002f0a:	0000                	unimp
80002f0c:	03c5                	addi	t2,t2,17
80002f0e:	0000                	unimp
80002f10:	008c                	addi	a1,sp,64
80002f12:	0000                	unimp
80002f14:	00d8                	addi	a4,sp,68
80002f16:	0000                	unimp
80002f18:	000003bb          	0x3bb
80002f1c:	026d                	addi	tp,tp,27
80002f1e:	0000                	unimp
80002f20:	00000157          	0x157
80002f24:	0169                	addi	sp,sp,26
80002f26:	0000                	unimp

80002f28 <verify_data>:
80002f28:	0000                	unimp
80002f2a:	0000                	unimp
80002f2c:	01c6                	slli	gp,gp,0x11
80002f2e:	0000                	unimp
80002f30:	01c6                	slli	gp,gp,0x11
80002f32:	0000                	unimp
80002f34:	0234                	addi	a3,sp,264
80002f36:	0000                	unimp
80002f38:	0000014f          	fnmadd.s	ft2,ft0,ft0,ft0,rne
80002f3c:	000000bb          	0xbb
80002f40:	000000bb          	0xbb
80002f44:	02ed                	addi	t0,t0,27
80002f46:	0000                	unimp
80002f48:	02ed                	addi	t0,t0,27
80002f4a:	0000                	unimp
80002f4c:	016d                	addi	sp,sp,27
80002f4e:	0000                	unimp
80002f50:	016d                	addi	sp,sp,27
80002f52:	0000                	unimp
80002f54:	015e                	slli	sp,sp,0x17
80002f56:	0000                	unimp
80002f58:	0084                	addi	s1,sp,64
80002f5a:	0000                	unimp
80002f5c:	0084                	addi	s1,sp,64
80002f5e:	0000                	unimp
80002f60:	0099                	addi	ra,ra,6
80002f62:	0000                	unimp
80002f64:	0248                	addi	a0,sp,260
80002f66:	0000                	unimp
80002f68:	00d8                	addi	a4,sp,68
80002f6a:	0000                	unimp
80002f6c:	0248                	addi	a0,sp,260
80002f6e:	0000                	unimp
80002f70:	00d8                	addi	a4,sp,68
80002f72:	0000                	unimp
80002f74:	026d                	addi	tp,tp,27
80002f76:	0000                	unimp
80002f78:	00d2                	slli	ra,ra,0x14
80002f7a:	0000                	unimp
80002f7c:	00d2                	slli	ra,ra,0x14
80002f7e:	0000                	unimp
80002f80:	00d2                	slli	ra,ra,0x14
80002f82:	0000                	unimp
80002f84:	023c                	addi	a5,sp,264
80002f86:	0000                	unimp
80002f88:	023c                	addi	a5,sp,264
80002f8a:	0000                	unimp
80002f8c:	037a                	slli	t1,t1,0x1e
80002f8e:	0000                	unimp
80002f90:	0251                	addi	tp,tp,20
80002f92:	0000                	unimp
80002f94:	0251                	addi	tp,tp,20
80002f96:	0000                	unimp
80002f98:	0251                	addi	tp,tp,20
80002f9a:	0000                	unimp
80002f9c:	02b6                	slli	t0,t0,0xd
80002f9e:	0000                	unimp
80002fa0:	02b6                	slli	t0,t0,0xd
80002fa2:	0000                	unimp
80002fa4:	02b6                	slli	t0,t0,0xd
80002fa6:	0000                	unimp
80002fa8:	00e4                	addi	s1,sp,76
80002faa:	0000                	unimp
80002fac:	006e                	c.slli	zero,0x1b
80002fae:	0000                	unimp
80002fb0:	006e                	c.slli	zero,0x1b
80002fb2:	0000                	unimp
80002fb4:	0074                	addi	a3,sp,12
80002fb6:	0000                	unimp
80002fb8:	02ee                	slli	t0,t0,0x1b
80002fba:	0000                	unimp
80002fbc:	0128                	addi	a0,sp,136
80002fbe:	0000                	unimp
80002fc0:	0286                	slli	t0,t0,0x1
80002fc2:	0000                	unimp
80002fc4:	01aa                	slli	gp,gp,0xa
80002fc6:	0000                	unimp
80002fc8:	01f4                	addi	a3,sp,204
80002fca:	0000                	unimp
80002fcc:	01aa                	slli	gp,gp,0xa
80002fce:	0000                	unimp
80002fd0:	01b4                	addi	a3,sp,200
80002fd2:	0000                	unimp
80002fd4:	01b4                	addi	a3,sp,200
80002fd6:	0000                	unimp
80002fd8:	00000293          	li	t0,0
80002fdc:	02bd                	addi	t0,t0,15
80002fde:	0000                	unimp
80002fe0:	0306                	slli	t1,t1,0x1
80002fe2:	0000                	unimp
80002fe4:	0306                	slli	t1,t1,0x1
80002fe6:	0000                	unimp
80002fe8:	032c                	addi	a1,sp,392
80002fea:	0000                	unimp
80002fec:	02a6                	slli	t0,t0,0x9
80002fee:	0000                	unimp
80002ff0:	02a6                	slli	t0,t0,0x9
80002ff2:	0000                	unimp
80002ff4:	02a6                	slli	t0,t0,0x9
80002ff6:	0000                	unimp
80002ff8:	02b8                	addi	a4,sp,328
80002ffa:	0000                	unimp
80002ffc:	02b8                	addi	a4,sp,328
80002ffe:	0000                	unimp
80003000:	0234                	addi	a3,sp,264
80003002:	0000                	unimp
80003004:	01da                	slli	gp,gp,0x16
80003006:	0000                	unimp
80003008:	01da                	slli	gp,gp,0x16
8000300a:	0000                	unimp
8000300c:	01da                	slli	gp,gp,0x16
8000300e:	0000                	unimp
80003010:	0110                	addi	a2,sp,128
80003012:	0000                	unimp
80003014:	0000021b          	0x21b
80003018:	0000021b          	0x21b
8000301c:	0239                	addi	tp,tp,14
8000301e:	0000                	unimp
80003020:	0239                	addi	tp,tp,14
80003022:	0000                	unimp
80003024:	01fd                	addi	gp,gp,31
80003026:	0000                	unimp
80003028:	000000cb          	fnmsub.s	ft1,ft0,ft0,ft0,rne
8000302c:	000000cb          	fnmsub.s	ft1,ft0,ft0,ft0,rne
80003030:	0118                	addi	a4,sp,128
80003032:	0000                	unimp
80003034:	000002bf 000002bf 	0x2bf000002bf
8000303c:	029d                	addi	t0,t0,7
8000303e:	0000                	unimp
80003040:	025e                	slli	tp,tp,0x17
80003042:	0000                	unimp
80003044:	01ff                	0x1ff
80003046:	0000                	unimp
80003048:	01ff                	0x1ff
8000304a:	0000                	unimp
8000304c:	00000227          	0x227
80003050:	0291                	addi	t0,t0,4
80003052:	0000                	unimp
80003054:	0291                	addi	t0,t0,4
80003056:	0000                	unimp
80003058:	0250                	addi	a2,sp,260
8000305a:	0000                	unimp
8000305c:	000000c3          	fmadd.s	ft1,ft0,ft0,ft0,rne
80003060:	0239                	addi	tp,tp,14
80003062:	0000                	unimp
80003064:	0000010b          	0x10b
80003068:	0239                	addi	tp,tp,14
8000306a:	0000                	unimp
8000306c:	0000010b          	0x10b
80003070:	0320                	addi	s0,sp,392
80003072:	0000                	unimp
80003074:	0151                	addi	sp,sp,20
80003076:	0000                	unimp
80003078:	0248                	addi	a0,sp,260
8000307a:	0000                	unimp
8000307c:	0248                	addi	a0,sp,260
8000307e:	0000                	unimp
80003080:	00000283          	lb	t0,0(zero) # 0 <_tbss_end>
80003084:	0386                	slli	t2,t2,0x1
80003086:	0000                	unimp
80003088:	00000283          	lb	t0,0(zero) # 0 <_tbss_end>
8000308c:	0170                	addi	a2,sp,140
8000308e:	0000                	unimp
80003090:	0170                	addi	a2,sp,140
80003092:	0000                	unimp
80003094:	01e9                	addi	gp,gp,26
80003096:	0000                	unimp
80003098:	01e9                	addi	gp,gp,26
8000309a:	0000                	unimp
8000309c:	033a                	slli	t1,t1,0xe
8000309e:	0000                	unimp
800030a0:	0148                	addi	a0,sp,132
800030a2:	0000                	unimp
800030a4:	033a                	slli	t1,t1,0xe
800030a6:	0000                	unimp
800030a8:	0250                	addi	a2,sp,260
800030aa:	0000                	unimp
800030ac:	03a5                	addi	t2,t2,9
800030ae:	0000                	unimp
800030b0:	0250                	addi	a2,sp,260
800030b2:	0000                	unimp
800030b4:	0184                	addi	s1,sp,192
800030b6:	0000                	unimp
800030b8:	0184                	addi	s1,sp,192
800030ba:	0000                	unimp
800030bc:	021f 0000 0289      	0x2890000021f
800030c2:	0000                	unimp
800030c4:	0289                	addi	t0,t0,2
800030c6:	0000                	unimp
800030c8:	0289                	addi	t0,t0,2
800030ca:	0000                	unimp
800030cc:	0236                	slli	tp,tp,0xd
800030ce:	0000                	unimp
800030d0:	000003d3          	fadd.s	ft7,ft0,ft0,rne
800030d4:	0289                	addi	t0,t0,2
800030d6:	0000                	unimp
800030d8:	032e                	slli	t1,t1,0xb
800030da:	0000                	unimp
800030dc:	0291                	addi	t0,t0,4
800030de:	0000                	unimp
800030e0:	0291                	addi	t0,t0,4
800030e2:	0000                	unimp
800030e4:	00b5                	addi	ra,ra,13
800030e6:	0000                	unimp
800030e8:	00b5                	addi	ra,ra,13
800030ea:	0000                	unimp
800030ec:	00b5                	addi	ra,ra,13
800030ee:	0000                	unimp
800030f0:	00d0                	addi	a2,sp,68
800030f2:	0000                	unimp
800030f4:	0000035b          	0x35b
800030f8:	0000035b          	0x35b
800030fc:	0275                	addi	tp,tp,29
800030fe:	0000                	unimp
80003100:	0275                	addi	tp,tp,29
80003102:	0000                	unimp
80003104:	0120                	addi	s0,sp,136
80003106:	0000                	unimp
80003108:	02c0                	addi	s0,sp,324
8000310a:	0000                	unimp
8000310c:	015d                	addi	sp,sp,23
8000310e:	0000                	unimp
80003110:	02c0                	addi	s0,sp,324
80003112:	0000                	unimp
80003114:	015d                	addi	sp,sp,23
80003116:	0000                	unimp
80003118:	00fd                	addi	ra,ra,31
8000311a:	0000                	unimp
8000311c:	00fd                	addi	ra,ra,31
8000311e:	0000                	unimp
80003120:	000002cb          	fnmsub.s	ft5,ft0,ft0,ft0,rne
80003124:	0376                	slli	t1,t1,0x1d
80003126:	0000                	unimp
80003128:	000002cb          	fnmsub.s	ft5,ft0,ft0,ft0,rne
8000312c:	01ae                	slli	gp,gp,0xb
8000312e:	0000                	unimp
80003130:	019f 0000 019f      	0x19f0000019f
80003136:	0000                	unimp
80003138:	021a                	slli	tp,tp,0x6
8000313a:	0000                	unimp
8000313c:	0240                	addi	s0,sp,260
8000313e:	0000                	unimp
80003140:	02bc                	addi	a5,sp,328
80003142:	0000                	unimp
80003144:	02f9                	addi	t0,t0,30
80003146:	0000                	unimp
80003148:	02bc                	addi	a5,sp,328
8000314a:	0000                	unimp
8000314c:	00f1                	addi	ra,ra,28
8000314e:	0000                	unimp
80003150:	00f1                	addi	ra,ra,28
80003152:	0000                	unimp
80003154:	01de                	slli	gp,gp,0x17
80003156:	0000                	unimp
80003158:	01de                	slli	gp,gp,0x17
8000315a:	0000                	unimp
8000315c:	01de                	slli	gp,gp,0x17
8000315e:	0000                	unimp
80003160:	000001f3          	0x1f3
80003164:	000001f3          	0x1f3
80003168:	02b5                	addi	t0,t0,13
8000316a:	0000                	unimp
8000316c:	00000193          	li	gp,0
80003170:	01a0                	addi	s0,sp,200
80003172:	0000                	unimp
80003174:	01a0                	addi	s0,sp,200
80003176:	0000                	unimp
80003178:	01a0                	addi	s0,sp,200
8000317a:	0000                	unimp
8000317c:	01bc                	addi	a5,sp,200
8000317e:	0000                	unimp
80003180:	0128                	addi	a0,sp,136
80003182:	0000                	unimp
80003184:	02a4                	addi	s1,sp,328
80003186:	0000                	unimp
80003188:	026c                	addi	a1,sp,268
8000318a:	0000                	unimp
8000318c:	026c                	addi	a1,sp,268
8000318e:	0000                	unimp
80003190:	013d                	addi	sp,sp,15
80003192:	0000                	unimp
80003194:	00e0                	addi	s0,sp,76
80003196:	0000                	unimp
80003198:	00e0                	addi	s0,sp,76
8000319a:	0000                	unimp
8000319c:	015f 0000 021c      	0x21c0000015f
800031a2:	0000                	unimp
800031a4:	021c                	addi	a5,sp,256
800031a6:	0000                	unimp
800031a8:	021c                	addi	a5,sp,256
800031aa:	0000                	unimp
800031ac:	0120                	addi	s0,sp,136
800031ae:	0000                	unimp
800031b0:	00a9                	addi	ra,ra,10
800031b2:	0000                	unimp
800031b4:	00a9                	addi	ra,ra,10
800031b6:	0000                	unimp
800031b8:	0000020f          	0x20f
800031bc:	025e                	slli	tp,tp,0x17
800031be:	0000                	unimp
800031c0:	0000020f          	0x20f
800031c4:	0185                	addi	gp,gp,1
800031c6:	0000                	unimp
800031c8:	0185                	addi	gp,gp,1
800031ca:	0000                	unimp
800031cc:	0185                	addi	gp,gp,1
800031ce:	0000                	unimp
800031d0:	031c                	addi	a5,sp,384
800031d2:	0000                	unimp
800031d4:	000001c7          	fmsub.s	ft3,ft0,ft0,ft0,rne
800031d8:	02d0                	addi	a2,sp,324
800031da:	0000                	unimp
800031dc:	000001c7          	fmsub.s	ft3,ft0,ft0,ft0,rne
800031e0:	02d0                	addi	a2,sp,324
800031e2:	0000                	unimp
800031e4:	0000016f          	jal	sp,800031e4 <verify_data+0x2bc>
800031e8:	02e9                	addi	t0,t0,26
800031ea:	0000                	unimp
800031ec:	0000016f          	jal	sp,800031ec <verify_data+0x2c4>
800031f0:	0166                	slli	sp,sp,0x19
800031f2:	0000                	unimp
800031f4:	0166                	slli	sp,sp,0x19
800031f6:	0000                	unimp
800031f8:	0248                	addi	a0,sp,260
800031fa:	0000                	unimp
800031fc:	0248                	addi	a0,sp,260
800031fe:	0000                	unimp
80003200:	0000010f          	0x10f
80003204:	0000010f          	0x10f
80003208:	0355                	addi	t1,t1,21
8000320a:	0000                	unimp
8000320c:	0355                	addi	t1,t1,21
8000320e:	0000                	unimp
80003210:	0314                	addi	a3,sp,384
80003212:	0000                	unimp
80003214:	00000193          	li	gp,0
80003218:	00000213          	li	tp,0
8000321c:	0205                	addi	tp,tp,1
8000321e:	0000                	unimp
80003220:	0205                	addi	tp,tp,1
80003222:	0000                	unimp
80003224:	0205                	addi	tp,tp,1
80003226:	0000                	unimp
80003228:	01cd                	addi	gp,gp,19
8000322a:	0000                	unimp
8000322c:	0000022f          	0x22f
80003230:	01cd                	addi	gp,gp,19
80003232:	0000                	unimp
80003234:	00000307          	0x307
80003238:	0166                	slli	sp,sp,0x19
8000323a:	0000                	unimp
8000323c:	0166                	slli	sp,sp,0x19
8000323e:	0000                	unimp
80003240:	014c                	addi	a1,sp,132
80003242:	0000                	unimp
80003244:	014c                	addi	a1,sp,132
80003246:	0000                	unimp
80003248:	02ac                	addi	a1,sp,328
8000324a:	0000                	unimp
8000324c:	02ac                	addi	a1,sp,328
8000324e:	0000                	unimp
80003250:	02ac                	addi	a1,sp,328
80003252:	0000                	unimp
80003254:	0256                	slli	tp,tp,0x15
80003256:	0000                	unimp
80003258:	01be                	slli	gp,gp,0xf
8000325a:	0000                	unimp
8000325c:	0000008f          	0x8f
80003260:	00000137          	lui	sp,0x0
80003264:	007d                	c.nop	31
80003266:	0000                	unimp
80003268:	00000137          	lui	sp,0x0
8000326c:	000002e7          	jalr	t0,zero # 0 <_tbss_end>
80003270:	000002e7          	jalr	t0,zero # 0 <_tbss_end>
80003274:	03a5                	addi	t2,t2,9
80003276:	0000                	unimp
80003278:	022d                	addi	tp,tp,11
8000327a:	0000                	unimp
8000327c:	031f 0000 022d      	0x22d0000031f
80003282:	0000                	unimp
80003284:	022d                	addi	tp,tp,11
80003286:	0000                	unimp
80003288:	022d                	addi	tp,tp,11
8000328a:	0000                	unimp
8000328c:	0229                	addi	tp,tp,10
8000328e:	0000                	unimp
80003290:	031c                	addi	a5,sp,384
80003292:	0000                	unimp
80003294:	0288                	addi	a0,sp,320
80003296:	0000                	unimp
80003298:	0288                	addi	a0,sp,320
8000329a:	0000                	unimp
8000329c:	0288                	addi	a0,sp,320
8000329e:	0000                	unimp
800032a0:	0000037b          	0x37b
800032a4:	0000037b          	0x37b
800032a8:	029a                	slli	t0,t0,0x6
800032aa:	0000                	unimp
800032ac:	011f 0000 0202      	0x2020000011f
800032b2:	0000                	unimp
800032b4:	0031                	c.nop	12
800032b6:	0000                	unimp
800032b8:	0202                	c.slli64	tp
800032ba:	0000                	unimp
800032bc:	0056                	c.slli	zero,0x15
800032be:	0000                	unimp
800032c0:	022d                	addi	tp,tp,11
800032c2:	0000                	unimp
800032c4:	005f 0000 0355      	0x3550000005f
800032ca:	0000                	unimp
800032cc:	01b9                	addi	gp,gp,14
800032ce:	0000                	unimp
800032d0:	01b9                	addi	gp,gp,14
800032d2:	0000                	unimp
800032d4:	01b9                	addi	gp,gp,14
800032d6:	0000                	unimp
800032d8:	01b8                	addi	a4,sp,200
800032da:	0000                	unimp
800032dc:	0000024b          	fnmsub.s	ft4,ft0,ft0,ft0,rne
800032e0:	0266                	slli	tp,tp,0x19
800032e2:	0000                	unimp
800032e4:	0266                	slli	tp,tp,0x19
800032e6:	0000                	unimp
800032e8:	018c                	addi	a1,sp,192
800032ea:	0000                	unimp
800032ec:	017e                	slli	sp,sp,0x1f
800032ee:	0000                	unimp
800032f0:	0118                	addi	a4,sp,128
800032f2:	0000                	unimp
800032f4:	0118                	addi	a4,sp,128
800032f6:	0000                	unimp
800032f8:	0011                	c.nop	4
800032fa:	0000                	unimp
800032fc:	0328                	addi	a0,sp,392
800032fe:	0000                	unimp
80003300:	00aa                	slli	ra,ra,0xa
80003302:	0000                	unimp
80003304:	00000333          	add	t1,zero,zero
80003308:	00000123          	sb	zero,2(zero) # 2 <_tbss_end+0x2>
8000330c:	0158                	addi	a4,sp,132
8000330e:	0000                	unimp
80003310:	0158                	addi	a4,sp,132
80003312:	0000                	unimp
80003314:	017c                	addi	a5,sp,140
80003316:	0000                	unimp
80003318:	01c2                	slli	gp,gp,0x10
8000331a:	0000                	unimp
8000331c:	0200                	addi	s0,sp,256
8000331e:	0000                	unimp
80003320:	0200                	addi	s0,sp,256
80003322:	0000                	unimp
80003324:	0200                	addi	s0,sp,256
80003326:	0000                	unimp
80003328:	0395                	addi	t2,t2,5
8000332a:	0000                	unimp
8000332c:	0395                	addi	t2,t2,5
8000332e:	0000                	unimp
80003330:	0000021b          	0x21b
80003334:	0000021b          	0x21b
80003338:	0328                	addi	a0,sp,392
8000333a:	0000                	unimp
8000333c:	0372                	slli	t1,t1,0x1c
8000333e:	0000                	unimp
80003340:	00000377          	0x377
80003344:	0372                	slli	t1,t1,0x1c
80003346:	0000                	unimp
80003348:	0219                	addi	tp,tp,6
8000334a:	0000                	unimp
8000334c:	0219                	addi	tp,tp,6
8000334e:	0000                	unimp
80003350:	0264                	addi	s1,sp,268
80003352:	0000                	unimp
80003354:	02bd                	addi	t0,t0,15
80003356:	0000                	unimp
80003358:	02bd                	addi	t0,t0,15
8000335a:	0000                	unimp
8000335c:	02bd                	addi	t0,t0,15
8000335e:	0000                	unimp
80003360:	01df 0000 01df      	0x1df000001df
80003366:	0000                	unimp
80003368:	01df 0000 0237      	0x237000001df
8000336e:	0000                	unimp
80003370:	00000097          	auipc	ra,0x0
80003374:	0016                	c.slli	zero,0x5
80003376:	0000                	unimp
80003378:	0016                	c.slli	zero,0x5
8000337a:	0000                	unimp
8000337c:	0238                	addi	a4,sp,264
8000337e:	0000                	unimp
80003380:	0238                	addi	a4,sp,264
80003382:	0000                	unimp
80003384:	0238                	addi	a4,sp,264
80003386:	0000                	unimp
80003388:	0299                	addi	t0,t0,6
8000338a:	0000                	unimp
8000338c:	0299                	addi	t0,t0,6
8000338e:	0000                	unimp
80003390:	000001a7          	0x1a7
80003394:	000001a7          	0x1a7
80003398:	01b2                	slli	gp,gp,0xc
8000339a:	0000                	unimp
8000339c:	01b2                	slli	gp,gp,0xc
8000339e:	0000                	unimp
800033a0:	0118                	addi	a4,sp,128
800033a2:	0000                	unimp
800033a4:	009e                	slli	ra,ra,0x7
800033a6:	0000                	unimp
800033a8:	0118                	addi	a4,sp,128
800033aa:	0000                	unimp
800033ac:	0054                	addi	a3,sp,4
800033ae:	0000                	unimp
800033b0:	0000018b          	0x18b
800033b4:	000000f7          	0xf7
800033b8:	02b0                	addi	a2,sp,328
800033ba:	0000                	unimp
800033bc:	000000f7          	0xf7
800033c0:	01dc                	addi	a5,sp,196
800033c2:	0000                	unimp
800033c4:	000001b3          	add	gp,zero,zero
800033c8:	01dc                	addi	a5,sp,196
800033ca:	0000                	unimp
800033cc:	0318                	addi	a4,sp,384
800033ce:	0000                	unimp
800033d0:	0318                	addi	a4,sp,384
800033d2:	0000                	unimp
800033d4:	0318                	addi	a4,sp,384
800033d6:	0000                	unimp
800033d8:	02d9                	addi	t0,t0,22
800033da:	0000                	unimp
800033dc:	01e6                	slli	gp,gp,0x19
800033de:	0000                	unimp
800033e0:	0109                	addi	sp,sp,2
800033e2:	0000                	unimp
800033e4:	019e                	slli	gp,gp,0x7
800033e6:	0000                	unimp
800033e8:	00ec                	addi	a1,sp,76
800033ea:	0000                	unimp
800033ec:	0171                	addi	sp,sp,28
800033ee:	0000                	unimp
800033f0:	00ec                	addi	a1,sp,76
800033f2:	0000                	unimp
800033f4:	0171                	addi	sp,sp,28
800033f6:	0000                	unimp
800033f8:	00d6                	slli	ra,ra,0x15
800033fa:	0000                	unimp
800033fc:	0206                	slli	tp,tp,0x1
800033fe:	0000                	unimp
80003400:	00b4                	addi	a3,sp,72
80003402:	0000                	unimp
80003404:	0206                	slli	tp,tp,0x1
80003406:	0000                	unimp
80003408:	000001f7          	0x1f7
8000340c:	02aa                	slli	t0,t0,0xa
8000340e:	0000                	unimp
80003410:	0254                	addi	a3,sp,260
80003412:	0000                	unimp
80003414:	0254                	addi	a3,sp,260
80003416:	0000                	unimp
80003418:	011c                	addi	a5,sp,128
8000341a:	0000                	unimp
8000341c:	0108                	addi	a0,sp,128
8000341e:	0000                	unimp
80003420:	0108                	addi	a0,sp,128
80003422:	0000                	unimp
80003424:	000001f3          	0x1f3
80003428:	000001f3          	0x1f3
8000342c:	015a                	slli	sp,sp,0x16
8000342e:	0000                	unimp
80003430:	015a                	slli	sp,sp,0x16
80003432:	0000                	unimp
80003434:	00000257          	0x257
80003438:	00000257          	0x257
8000343c:	000000d7          	0xd7
80003440:	000000d7          	0xd7
80003444:	000002db          	0x2db
80003448:	000002db          	0x2db
8000344c:	02b0                	addi	a2,sp,328
8000344e:	0000                	unimp
80003450:	0292                	slli	t0,t0,0x4
80003452:	0000                	unimp
80003454:	0000026b          	0x26b
80003458:	000000fb          	0xfb
8000345c:	000000fb          	0xfb
80003460:	00000083          	lb	ra,0(zero) # 0 <_tbss_end>
80003464:	0000022b          	0x22b
80003468:	0000022b          	0x22b
8000346c:	0000022b          	0x22b
80003470:	0000029b          	0x29b
80003474:	0210                	addi	a2,sp,256
80003476:	0000                	unimp
80003478:	0210                	addi	a2,sp,256
8000347a:	0000                	unimp
8000347c:	0210                	addi	a2,sp,256
8000347e:	0000                	unimp
80003480:	000001e7          	jalr	gp,zero # 0 <_tbss_end>
80003484:	000001e7          	jalr	gp,zero # 0 <_tbss_end>
80003488:	000001e7          	jalr	gp,zero # 0 <_tbss_end>
8000348c:	02f1                	addi	t0,t0,28
8000348e:	0000                	unimp
80003490:	02f1                	addi	t0,t0,28
80003492:	0000                	unimp
80003494:	011f 0000 011f      	0x11f0000011f
8000349a:	0000                	unimp
8000349c:	0272                	slli	tp,tp,0x1c
8000349e:	0000                	unimp
800034a0:	0272                	slli	tp,tp,0x1c
800034a2:	0000                	unimp
800034a4:	0130                	addi	a2,sp,136
800034a6:	0000                	unimp
800034a8:	000e                	c.slli	zero,0x3
800034aa:	0000                	unimp
800034ac:	0130                	addi	a2,sp,136
800034ae:	0000                	unimp
800034b0:	00000193          	li	gp,0
800034b4:	02dd                	addi	t0,t0,23
800034b6:	0000                	unimp
800034b8:	00000193          	li	gp,0
800034bc:	02dd                	addi	t0,t0,23
800034be:	0000                	unimp
800034c0:	000002bf 000002bf 	0x2bf000002bf
800034c8:	000002bf 000002d2 	0x2d2000002bf
800034d0:	0332                	slli	t1,t1,0xc
800034d2:	0000                	unimp
800034d4:	02d2                	slli	t0,t0,0x14
800034d6:	0000                	unimp
800034d8:	0196                	slli	gp,gp,0x5
800034da:	0000                	unimp
800034dc:	0196                	slli	gp,gp,0x5
800034de:	0000                	unimp
800034e0:	036a                	slli	t1,t1,0x1a
800034e2:	0000                	unimp
800034e4:	036a                	slli	t1,t1,0x1a
800034e6:	0000                	unimp
800034e8:	0358                	addi	a4,sp,388
800034ea:	0000                	unimp
800034ec:	02ec                	addi	a1,sp,332
800034ee:	0000                	unimp
800034f0:	02ec                	addi	a1,sp,332
800034f2:	0000                	unimp
800034f4:	0000005b          	0x5b
800034f8:	0056                	c.slli	zero,0x15
800034fa:	0000                	unimp
800034fc:	0000005b          	0x5b
80003500:	017a                	slli	sp,sp,0x1e
80003502:	0000                	unimp
80003504:	017a                	slli	sp,sp,0x1e
80003506:	0000                	unimp
80003508:	0294                	addi	a3,sp,320
8000350a:	0000                	unimp
8000350c:	0069                	c.nop	26
8000350e:	0000                	unimp
80003510:	0099                	addi	ra,ra,6
80003512:	0000                	unimp
80003514:	0099                	addi	ra,ra,6
80003516:	0000                	unimp
80003518:	0099                	addi	ra,ra,6
8000351a:	0000                	unimp
8000351c:	017d                	addi	sp,sp,31
8000351e:	0000                	unimp
80003520:	0079                	c.nop	30
80003522:	0000                	unimp
80003524:	0000028b          	0x28b
80003528:	019c                	addi	a5,sp,192
8000352a:	0000                	unimp
8000352c:	0339                	addi	t1,t1,14
8000352e:	0000                	unimp
80003530:	019c                	addi	a5,sp,192
80003532:	0000                	unimp
80003534:	0164                	addi	s1,sp,140
80003536:	0000                	unimp
80003538:	00ec                	addi	a1,sp,76
8000353a:	0000                	unimp
8000353c:	0094                	addi	a3,sp,64
8000353e:	0000                	unimp
80003540:	0094                	addi	a3,sp,64
80003542:	0000                	unimp
80003544:	0094                	addi	a3,sp,64
80003546:	0000                	unimp
80003548:	000001a7          	0x1a7
8000354c:	008c                	addi	a1,sp,64
8000354e:	0000                	unimp
80003550:	00d8                	addi	a4,sp,68
80003552:	0000                	unimp
80003554:	00d8                	addi	a4,sp,68
80003556:	0000                	unimp
80003558:	026d                	addi	tp,tp,27
8000355a:	0000                	unimp
8000355c:	026d                	addi	tp,tp,27
8000355e:	0000                	unimp
80003560:	0169                	addi	sp,sp,26
80003562:	0000                	unimp
80003564:	0000                	unimp
80003566:	0000                	unimp
