
firmware.o:     file format elf64-x86-64


Disassembly of section .text:

0000000080000000 <putcchar>:
    80000000:	55                   	push   %rbp
    80000001:	48 89 e5             	mov    %rsp,%rbp
    80000004:	48 83 ec 10          	sub    $0x10,%rsp
    80000008:	89 f8                	mov    %edi,%eax
    8000000a:	88 45 fc             	mov    %al,-0x4(%rbp)
    8000000d:	80 7d fc 0a          	cmpb   $0xa,-0x4(%rbp)
    80000011:	75 0a                	jne    8000001d <putcchar+0x1d>
    80000013:	bf 0d 00 00 00       	mov    $0xd,%edi
    80000018:	e8 00 00 00 00       	callq  8000001d <putcchar+0x1d>
    8000001d:	b8 00 00 00 ff       	mov    $0xff000000,%eax
    80000022:	0f be 55 fc          	movsbl -0x4(%rbp),%edx
    80000026:	89 10                	mov    %edx,(%rax)
    80000028:	90                   	nop
    80000029:	c9                   	leaveq 
    8000002a:	c3                   	retq   

000000008000002b <printt>:
    8000002b:	55                   	push   %rbp
    8000002c:	48 89 e5             	mov    %rsp,%rbp
    8000002f:	48 83 ec 10          	sub    $0x10,%rsp
    80000033:	48 89 7d f8          	mov    %rdi,-0x8(%rbp)
    80000037:	eb 19                	jmp    80000052 <printt+0x27>
    80000039:	48 8b 45 f8          	mov    -0x8(%rbp),%rax
    8000003d:	48 8d 50 01          	lea    0x1(%rax),%rdx
    80000041:	48 89 55 f8          	mov    %rdx,-0x8(%rbp)
    80000045:	0f b6 00             	movzbl (%rax),%eax
    80000048:	0f be c0             	movsbl %al,%eax
    8000004b:	89 c7                	mov    %eax,%edi
    8000004d:	e8 00 00 00 00       	callq  80000052 <printt+0x27>
    80000052:	48 8b 45 f8          	mov    -0x8(%rbp),%rax
    80000056:	0f b6 00             	movzbl (%rax),%eax
    80000059:	84 c0                	test   %al,%al
    8000005b:	75 dc                	jne    80000039 <printt+0xe>
    8000005d:	90                   	nop
    8000005e:	c9                   	leaveq 
    8000005f:	c3                   	retq   

0000000080000060 <main>:
    80000060:	55                   	push   %rbp
    80000061:	48 89 e5             	mov    %rsp,%rbp
    80000064:	bf 00 00 00 00       	mov    $0x0,%edi
    80000069:	e8 00 00 00 00       	callq  8000006e <main+0xe>
    8000006e:	b8 00 00 00 00       	mov    $0x0,%eax
    80000073:	5d                   	pop    %rbp
    80000074:	c3                   	retq   
